
space-invaders.elf:     file format elf32-littlearm

Sections:
Idx Name          Size      VMA       LMA       File off  Algn
  0 .isr_vector   00000188  08000000  08000000  00010000  2**0
                  CONTENTS, ALLOC, LOAD, READONLY, DATA
  1 .text         000020c4  08000190  08000190  00010190  2**4
                  CONTENTS, ALLOC, LOAD, READONLY, CODE
  2 .rodata       00000138  08002254  08002254  00012254  2**2
                  CONTENTS, ALLOC, LOAD, READONLY, DATA
  3 .ARM.extab    00000000  0800238c  0800238c  00020090  2**0
                  CONTENTS
  4 .ARM          00000000  0800238c  0800238c  00020090  2**0
                  CONTENTS
  5 .preinit_array 00000000  0800238c  0800238c  00020090  2**0
                  CONTENTS, ALLOC, LOAD, DATA
  6 .init_array   00000004  0800238c  0800238c  0001238c  2**2
                  CONTENTS, ALLOC, LOAD, DATA
  7 .fini_array   00000004  08002390  08002390  00012390  2**2
                  CONTENTS, ALLOC, LOAD, DATA
  8 .data         00000090  20000000  08002394  00020000  2**2
                  CONTENTS, ALLOC, LOAD, DATA
  9 .bss          0000013c  20000090  08002424  00020090  2**2
                  ALLOC
 10 ._user_heap_stack 00000604  200001cc  08002424  000201cc  2**0
                  ALLOC
 11 .ARM.attributes 00000030  00000000  00000000  00020090  2**0
                  CONTENTS, READONLY
 12 .debug_info   00006373  00000000  00000000  000200c0  2**0
                  CONTENTS, READONLY, DEBUGGING, OCTETS
 13 .debug_abbrev 00001127  00000000  00000000  00026433  2**0
                  CONTENTS, READONLY, DEBUGGING, OCTETS
 14 .debug_aranges 00000530  00000000  00000000  00027560  2**3
                  CONTENTS, READONLY, DEBUGGING, OCTETS
 15 .debug_ranges 000004a8  00000000  00000000  00027a90  2**3
                  CONTENTS, READONLY, DEBUGGING, OCTETS
 16 .debug_macro  000032d5  00000000  00000000  00027f38  2**0
                  CONTENTS, READONLY, DEBUGGING, OCTETS
 17 .debug_line   00004f1d  00000000  00000000  0002b20d  2**0
                  CONTENTS, READONLY, DEBUGGING, OCTETS
 18 .debug_str    0005a057  00000000  00000000  0003012a  2**0
                  CONTENTS, READONLY, DEBUGGING, OCTETS
 19 .comment      00000053  00000000  00000000  0008a181  2**0
                  CONTENTS, READONLY
 20 .debug_frame  00001e14  00000000  00000000  0008a1d4  2**2
                  CONTENTS, READONLY, DEBUGGING, OCTETS

Disassembly of section .text:

08000190 <__do_global_dtors_aux>:
 8000190:	b510      	push	{r4, lr}
 8000192:	4c05      	ldr	r4, [pc, #20]	; (80001a8 <__do_global_dtors_aux+0x18>)
 8000194:	7823      	ldrb	r3, [r4, #0]
 8000196:	b933      	cbnz	r3, 80001a6 <__do_global_dtors_aux+0x16>
 8000198:	4b04      	ldr	r3, [pc, #16]	; (80001ac <__do_global_dtors_aux+0x1c>)
 800019a:	b113      	cbz	r3, 80001a2 <__do_global_dtors_aux+0x12>
 800019c:	4804      	ldr	r0, [pc, #16]	; (80001b0 <__do_global_dtors_aux+0x20>)
 800019e:	f3af 8000 	nop.w
 80001a2:	2301      	movs	r3, #1
 80001a4:	7023      	strb	r3, [r4, #0]
 80001a6:	bd10      	pop	{r4, pc}
 80001a8:	20000090 	.word	0x20000090
 80001ac:	00000000 	.word	0x00000000
 80001b0:	0800223c 	.word	0x0800223c

080001b4 <frame_dummy>:
 80001b4:	b508      	push	{r3, lr}
 80001b6:	4b03      	ldr	r3, [pc, #12]	; (80001c4 <frame_dummy+0x10>)
 80001b8:	b11b      	cbz	r3, 80001c2 <frame_dummy+0xe>
 80001ba:	4903      	ldr	r1, [pc, #12]	; (80001c8 <frame_dummy+0x14>)
 80001bc:	4803      	ldr	r0, [pc, #12]	; (80001cc <frame_dummy+0x18>)
 80001be:	f3af 8000 	nop.w
 80001c2:	bd08      	pop	{r3, pc}
 80001c4:	00000000 	.word	0x00000000
 80001c8:	20000094 	.word	0x20000094
 80001cc:	0800223c 	.word	0x0800223c

080001d0 <memchr>:
 80001d0:	f001 01ff 	and.w	r1, r1, #255	; 0xff
 80001d4:	2a10      	cmp	r2, #16
 80001d6:	db2b      	blt.n	8000230 <memchr+0x60>
 80001d8:	f010 0f07 	tst.w	r0, #7
 80001dc:	d008      	beq.n	80001f0 <memchr+0x20>
 80001de:	f810 3b01 	ldrb.w	r3, [r0], #1
 80001e2:	3a01      	subs	r2, #1
 80001e4:	428b      	cmp	r3, r1
 80001e6:	d02d      	beq.n	8000244 <memchr+0x74>
 80001e8:	f010 0f07 	tst.w	r0, #7
 80001ec:	b342      	cbz	r2, 8000240 <memchr+0x70>
 80001ee:	d1f6      	bne.n	80001de <memchr+0xe>
 80001f0:	b4f0      	push	{r4, r5, r6, r7}
 80001f2:	ea41 2101 	orr.w	r1, r1, r1, lsl #8
 80001f6:	ea41 4101 	orr.w	r1, r1, r1, lsl #16
 80001fa:	f022 0407 	bic.w	r4, r2, #7
 80001fe:	f07f 0700 	mvns.w	r7, #0
 8000202:	2300      	movs	r3, #0
 8000204:	e8f0 5602 	ldrd	r5, r6, [r0], #8
 8000208:	3c08      	subs	r4, #8
 800020a:	ea85 0501 	eor.w	r5, r5, r1
 800020e:	ea86 0601 	eor.w	r6, r6, r1
 8000212:	fa85 f547 	uadd8	r5, r5, r7
 8000216:	faa3 f587 	sel	r5, r3, r7
 800021a:	fa86 f647 	uadd8	r6, r6, r7
 800021e:	faa5 f687 	sel	r6, r5, r7
 8000222:	b98e      	cbnz	r6, 8000248 <memchr+0x78>
 8000224:	d1ee      	bne.n	8000204 <memchr+0x34>
 8000226:	bcf0      	pop	{r4, r5, r6, r7}
 8000228:	f001 01ff 	and.w	r1, r1, #255	; 0xff
 800022c:	f002 0207 	and.w	r2, r2, #7
 8000230:	b132      	cbz	r2, 8000240 <memchr+0x70>
 8000232:	f810 3b01 	ldrb.w	r3, [r0], #1
 8000236:	3a01      	subs	r2, #1
 8000238:	ea83 0301 	eor.w	r3, r3, r1
 800023c:	b113      	cbz	r3, 8000244 <memchr+0x74>
 800023e:	d1f8      	bne.n	8000232 <memchr+0x62>
 8000240:	2000      	movs	r0, #0
 8000242:	4770      	bx	lr
 8000244:	3801      	subs	r0, #1
 8000246:	4770      	bx	lr
 8000248:	2d00      	cmp	r5, #0
 800024a:	bf06      	itte	eq
 800024c:	4635      	moveq	r5, r6
 800024e:	3803      	subeq	r0, #3
 8000250:	3807      	subne	r0, #7
 8000252:	f015 0f01 	tst.w	r5, #1
 8000256:	d107      	bne.n	8000268 <memchr+0x98>
 8000258:	3001      	adds	r0, #1
 800025a:	f415 7f80 	tst.w	r5, #256	; 0x100
 800025e:	bf02      	ittt	eq
 8000260:	3001      	addeq	r0, #1
 8000262:	f415 3fc0 	tsteq.w	r5, #98304	; 0x18000
 8000266:	3001      	addeq	r0, #1
 8000268:	bcf0      	pop	{r4, r5, r6, r7}
 800026a:	3801      	subs	r0, #1
 800026c:	4770      	bx	lr
 800026e:	bf00      	nop

08000270 <RCC_GetClocksFreq>:
  *           configuration based on this function will be incorrect.
  *    
  * @retval None
  */
void RCC_GetClocksFreq(RCC_ClocksTypeDef* RCC_Clocks)
{
 8000270:	b480      	push	{r7}
 8000272:	b08b      	sub	sp, #44	; 0x2c
 8000274:	af00      	add	r7, sp, #0
 8000276:	6078      	str	r0, [r7, #4]
  uint32_t tmp = 0, pllmull = 0, pllsource = 0, prediv1factor = 0, presc = 0, pllclk = 0;
 8000278:	2300      	movs	r3, #0
 800027a:	623b      	str	r3, [r7, #32]
 800027c:	2300      	movs	r3, #0
 800027e:	61fb      	str	r3, [r7, #28]
 8000280:	2300      	movs	r3, #0
 8000282:	61bb      	str	r3, [r7, #24]
 8000284:	2300      	movs	r3, #0
 8000286:	617b      	str	r3, [r7, #20]
 8000288:	2300      	movs	r3, #0
 800028a:	613b      	str	r3, [r7, #16]
 800028c:	2300      	movs	r3, #0
 800028e:	627b      	str	r3, [r7, #36]	; 0x24
  uint32_t apb2presc = 0, ahbpresc = 0;
 8000290:	2300      	movs	r3, #0
 8000292:	60fb      	str	r3, [r7, #12]
 8000294:	2300      	movs	r3, #0
 8000296:	60bb      	str	r3, [r7, #8]
  
  /* Get SYSCLK source -------------------------------------------------------*/
  tmp = RCC->CFGR & RCC_CFGR_SWS;
 8000298:	4b91      	ldr	r3, [pc, #580]	; (80004e0 <RCC_GetClocksFreq+0x270>)
 800029a:	685b      	ldr	r3, [r3, #4]
 800029c:	f003 030c 	and.w	r3, r3, #12
 80002a0:	623b      	str	r3, [r7, #32]
  
  switch (tmp)
 80002a2:	6a3b      	ldr	r3, [r7, #32]
 80002a4:	2b08      	cmp	r3, #8
 80002a6:	d011      	beq.n	80002cc <RCC_GetClocksFreq+0x5c>
 80002a8:	6a3b      	ldr	r3, [r7, #32]
 80002aa:	2b08      	cmp	r3, #8
 80002ac:	d837      	bhi.n	800031e <RCC_GetClocksFreq+0xae>
 80002ae:	6a3b      	ldr	r3, [r7, #32]
 80002b0:	2b00      	cmp	r3, #0
 80002b2:	d003      	beq.n	80002bc <RCC_GetClocksFreq+0x4c>
 80002b4:	6a3b      	ldr	r3, [r7, #32]
 80002b6:	2b04      	cmp	r3, #4
 80002b8:	d004      	beq.n	80002c4 <RCC_GetClocksFreq+0x54>
 80002ba:	e030      	b.n	800031e <RCC_GetClocksFreq+0xae>
  {
    case 0x00:  /* HSI used as system clock */
      RCC_Clocks->SYSCLK_Frequency = HSI_VALUE;
 80002bc:	687b      	ldr	r3, [r7, #4]
 80002be:	4a89      	ldr	r2, [pc, #548]	; (80004e4 <RCC_GetClocksFreq+0x274>)
 80002c0:	601a      	str	r2, [r3, #0]
      break;
 80002c2:	e030      	b.n	8000326 <RCC_GetClocksFreq+0xb6>
    case 0x04:  /* HSE used as system clock */
      RCC_Clocks->SYSCLK_Frequency = HSE_VALUE;
 80002c4:	687b      	ldr	r3, [r7, #4]
 80002c6:	4a87      	ldr	r2, [pc, #540]	; (80004e4 <RCC_GetClocksFreq+0x274>)
 80002c8:	601a      	str	r2, [r3, #0]
      break;
 80002ca:	e02c      	b.n	8000326 <RCC_GetClocksFreq+0xb6>
    case 0x08:  /* PLL used as system clock */
      /* Get PLL clock source and multiplication factor ----------------------*/
      pllmull = RCC->CFGR & RCC_CFGR_PLLMULL;
 80002cc:	4b84      	ldr	r3, [pc, #528]	; (80004e0 <RCC_GetClocksFreq+0x270>)
 80002ce:	685b      	ldr	r3, [r3, #4]
 80002d0:	f403 1370 	and.w	r3, r3, #3932160	; 0x3c0000
 80002d4:	61fb      	str	r3, [r7, #28]
      pllsource = RCC->CFGR & RCC_CFGR_PLLSRC;
 80002d6:	4b82      	ldr	r3, [pc, #520]	; (80004e0 <RCC_GetClocksFreq+0x270>)
 80002d8:	685b      	ldr	r3, [r3, #4]
 80002da:	f403 3380 	and.w	r3, r3, #65536	; 0x10000
 80002de:	61bb      	str	r3, [r7, #24]
      pllmull = ( pllmull >> 18) + 2;
 80002e0:	69fb      	ldr	r3, [r7, #28]
 80002e2:	0c9b      	lsrs	r3, r3, #18
 80002e4:	3302      	adds	r3, #2
 80002e6:	61fb      	str	r3, [r7, #28]
      
      if (pllsource == 0x00)
 80002e8:	69bb      	ldr	r3, [r7, #24]
 80002ea:	2b00      	cmp	r3, #0
 80002ec:	d105      	bne.n	80002fa <RCC_GetClocksFreq+0x8a>
      {
        /* HSI oscillator clock divided by 2 selected as PLL clock entry */
        pllclk = (HSI_VALUE >> 1) * pllmull;
 80002ee:	69fb      	ldr	r3, [r7, #28]
 80002f0:	4a7d      	ldr	r2, [pc, #500]	; (80004e8 <RCC_GetClocksFreq+0x278>)
 80002f2:	fb02 f303 	mul.w	r3, r2, r3
 80002f6:	627b      	str	r3, [r7, #36]	; 0x24
 80002f8:	e00d      	b.n	8000316 <RCC_GetClocksFreq+0xa6>
      }
      else
      {
        prediv1factor = (RCC->CFGR2 & RCC_CFGR2_PREDIV1) + 1;
 80002fa:	4b79      	ldr	r3, [pc, #484]	; (80004e0 <RCC_GetClocksFreq+0x270>)
 80002fc:	6adb      	ldr	r3, [r3, #44]	; 0x2c
 80002fe:	f003 030f 	and.w	r3, r3, #15
 8000302:	3301      	adds	r3, #1
 8000304:	617b      	str	r3, [r7, #20]
        /* HSE oscillator clock selected as PREDIV1 clock entry */
        pllclk = (HSE_VALUE / prediv1factor) * pllmull; 
 8000306:	4a77      	ldr	r2, [pc, #476]	; (80004e4 <RCC_GetClocksFreq+0x274>)
 8000308:	697b      	ldr	r3, [r7, #20]
 800030a:	fbb2 f2f3 	udiv	r2, r2, r3
 800030e:	69fb      	ldr	r3, [r7, #28]
 8000310:	fb02 f303 	mul.w	r3, r2, r3
 8000314:	627b      	str	r3, [r7, #36]	; 0x24
      }
      RCC_Clocks->SYSCLK_Frequency = pllclk;      
 8000316:	687b      	ldr	r3, [r7, #4]
 8000318:	6a7a      	ldr	r2, [r7, #36]	; 0x24
 800031a:	601a      	str	r2, [r3, #0]
      break;
 800031c:	e003      	b.n	8000326 <RCC_GetClocksFreq+0xb6>
    default: /* HSI used as system clock */
      RCC_Clocks->SYSCLK_Frequency = HSI_VALUE;
 800031e:	687b      	ldr	r3, [r7, #4]
 8000320:	4a70      	ldr	r2, [pc, #448]	; (80004e4 <RCC_GetClocksFreq+0x274>)
 8000322:	601a      	str	r2, [r3, #0]
      break;
 8000324:	bf00      	nop
  }
    /* Compute HCLK, PCLK clocks frequencies -----------------------------------*/
  /* Get HCLK prescaler */
  tmp = RCC->CFGR & RCC_CFGR_HPRE;
 8000326:	4b6e      	ldr	r3, [pc, #440]	; (80004e0 <RCC_GetClocksFreq+0x270>)
 8000328:	685b      	ldr	r3, [r3, #4]
 800032a:	f003 03f0 	and.w	r3, r3, #240	; 0xf0
 800032e:	623b      	str	r3, [r7, #32]
  tmp = tmp >> 4;
 8000330:	6a3b      	ldr	r3, [r7, #32]
 8000332:	091b      	lsrs	r3, r3, #4
 8000334:	623b      	str	r3, [r7, #32]
  ahbpresc = APBAHBPrescTable[tmp]; 
 8000336:	4a6d      	ldr	r2, [pc, #436]	; (80004ec <RCC_GetClocksFreq+0x27c>)
 8000338:	6a3b      	ldr	r3, [r7, #32]
 800033a:	4413      	add	r3, r2
 800033c:	781b      	ldrb	r3, [r3, #0]
 800033e:	b2db      	uxtb	r3, r3
 8000340:	60bb      	str	r3, [r7, #8]
  /* HCLK clock frequency */
  RCC_Clocks->HCLK_Frequency = RCC_Clocks->SYSCLK_Frequency >> ahbpresc;
 8000342:	687b      	ldr	r3, [r7, #4]
 8000344:	681a      	ldr	r2, [r3, #0]
 8000346:	68bb      	ldr	r3, [r7, #8]
 8000348:	40da      	lsrs	r2, r3
 800034a:	687b      	ldr	r3, [r7, #4]
 800034c:	605a      	str	r2, [r3, #4]

  /* Get PCLK1 prescaler */
  tmp = RCC->CFGR & RCC_CFGR_PPRE1;
 800034e:	4b64      	ldr	r3, [pc, #400]	; (80004e0 <RCC_GetClocksFreq+0x270>)
 8000350:	685b      	ldr	r3, [r3, #4]
 8000352:	f403 63e0 	and.w	r3, r3, #1792	; 0x700
 8000356:	623b      	str	r3, [r7, #32]
  tmp = tmp >> 8;
 8000358:	6a3b      	ldr	r3, [r7, #32]
 800035a:	0a1b      	lsrs	r3, r3, #8
 800035c:	623b      	str	r3, [r7, #32]
  presc = APBAHBPrescTable[tmp];
 800035e:	4a63      	ldr	r2, [pc, #396]	; (80004ec <RCC_GetClocksFreq+0x27c>)
 8000360:	6a3b      	ldr	r3, [r7, #32]
 8000362:	4413      	add	r3, r2
 8000364:	781b      	ldrb	r3, [r3, #0]
 8000366:	b2db      	uxtb	r3, r3
 8000368:	613b      	str	r3, [r7, #16]
  /* PCLK1 clock frequency */
  RCC_Clocks->PCLK1_Frequency = RCC_Clocks->HCLK_Frequency >> presc;
 800036a:	687b      	ldr	r3, [r7, #4]
 800036c:	685a      	ldr	r2, [r3, #4]
 800036e:	693b      	ldr	r3, [r7, #16]
 8000370:	40da      	lsrs	r2, r3
 8000372:	687b      	ldr	r3, [r7, #4]
 8000374:	609a      	str	r2, [r3, #8]
  
  /* Get PCLK2 prescaler */
  tmp = RCC->CFGR & RCC_CFGR_PPRE2;
 8000376:	4b5a      	ldr	r3, [pc, #360]	; (80004e0 <RCC_GetClocksFreq+0x270>)
 8000378:	685b      	ldr	r3, [r3, #4]
 800037a:	f403 5360 	and.w	r3, r3, #14336	; 0x3800
 800037e:	623b      	str	r3, [r7, #32]
  tmp = tmp >> 11;
 8000380:	6a3b      	ldr	r3, [r7, #32]
 8000382:	0adb      	lsrs	r3, r3, #11
 8000384:	623b      	str	r3, [r7, #32]
  apb2presc = APBAHBPrescTable[tmp];
 8000386:	4a59      	ldr	r2, [pc, #356]	; (80004ec <RCC_GetClocksFreq+0x27c>)
 8000388:	6a3b      	ldr	r3, [r7, #32]
 800038a:	4413      	add	r3, r2
 800038c:	781b      	ldrb	r3, [r3, #0]
 800038e:	b2db      	uxtb	r3, r3
 8000390:	60fb      	str	r3, [r7, #12]
  /* PCLK2 clock frequency */
  RCC_Clocks->PCLK2_Frequency = RCC_Clocks->HCLK_Frequency >> apb2presc;
 8000392:	687b      	ldr	r3, [r7, #4]
 8000394:	685a      	ldr	r2, [r3, #4]
 8000396:	68fb      	ldr	r3, [r7, #12]
 8000398:	40da      	lsrs	r2, r3
 800039a:	687b      	ldr	r3, [r7, #4]
 800039c:	60da      	str	r2, [r3, #12]
  
  /* Get ADC12CLK prescaler */
  tmp = RCC->CFGR2 & RCC_CFGR2_ADCPRE12;
 800039e:	4b50      	ldr	r3, [pc, #320]	; (80004e0 <RCC_GetClocksFreq+0x270>)
 80003a0:	6adb      	ldr	r3, [r3, #44]	; 0x2c
 80003a2:	f403 73f8 	and.w	r3, r3, #496	; 0x1f0
 80003a6:	623b      	str	r3, [r7, #32]
  tmp = tmp >> 4;
 80003a8:	6a3b      	ldr	r3, [r7, #32]
 80003aa:	091b      	lsrs	r3, r3, #4
 80003ac:	623b      	str	r3, [r7, #32]
  presc = ADCPrescTable[tmp];
 80003ae:	4a50      	ldr	r2, [pc, #320]	; (80004f0 <RCC_GetClocksFreq+0x280>)
 80003b0:	6a3b      	ldr	r3, [r7, #32]
 80003b2:	f832 3013 	ldrh.w	r3, [r2, r3, lsl #1]
 80003b6:	b29b      	uxth	r3, r3
 80003b8:	613b      	str	r3, [r7, #16]
  if ((presc & 0x10) != 0)
 80003ba:	693b      	ldr	r3, [r7, #16]
 80003bc:	f003 0310 	and.w	r3, r3, #16
 80003c0:	2b00      	cmp	r3, #0
 80003c2:	d006      	beq.n	80003d2 <RCC_GetClocksFreq+0x162>
  {
     /* ADC12CLK clock frequency is derived from PLL clock */
     RCC_Clocks->ADC12CLK_Frequency = pllclk / presc;
 80003c4:	6a7a      	ldr	r2, [r7, #36]	; 0x24
 80003c6:	693b      	ldr	r3, [r7, #16]
 80003c8:	fbb2 f2f3 	udiv	r2, r2, r3
 80003cc:	687b      	ldr	r3, [r7, #4]
 80003ce:	611a      	str	r2, [r3, #16]
 80003d0:	e003      	b.n	80003da <RCC_GetClocksFreq+0x16a>
  }
  else
  {
   /* ADC12CLK clock frequency is AHB clock */
     RCC_Clocks->ADC12CLK_Frequency = RCC_Clocks->SYSCLK_Frequency;
 80003d2:	687b      	ldr	r3, [r7, #4]
 80003d4:	681a      	ldr	r2, [r3, #0]
 80003d6:	687b      	ldr	r3, [r7, #4]
 80003d8:	611a      	str	r2, [r3, #16]
  }
  
  /* Get ADC34CLK prescaler */
  tmp = RCC->CFGR2 & RCC_CFGR2_ADCPRE34;
 80003da:	4b41      	ldr	r3, [pc, #260]	; (80004e0 <RCC_GetClocksFreq+0x270>)
 80003dc:	6adb      	ldr	r3, [r3, #44]	; 0x2c
 80003de:	f403 5378 	and.w	r3, r3, #15872	; 0x3e00
 80003e2:	623b      	str	r3, [r7, #32]
  tmp = tmp >> 9;
 80003e4:	6a3b      	ldr	r3, [r7, #32]
 80003e6:	0a5b      	lsrs	r3, r3, #9
 80003e8:	623b      	str	r3, [r7, #32]
  presc = ADCPrescTable[tmp];
 80003ea:	4a41      	ldr	r2, [pc, #260]	; (80004f0 <RCC_GetClocksFreq+0x280>)
 80003ec:	6a3b      	ldr	r3, [r7, #32]
 80003ee:	f832 3013 	ldrh.w	r3, [r2, r3, lsl #1]
 80003f2:	b29b      	uxth	r3, r3
 80003f4:	613b      	str	r3, [r7, #16]
  if ((presc & 0x10) != 0)
 80003f6:	693b      	ldr	r3, [r7, #16]
 80003f8:	f003 0310 	and.w	r3, r3, #16
 80003fc:	2b00      	cmp	r3, #0
 80003fe:	d006      	beq.n	800040e <RCC_GetClocksFreq+0x19e>
  {
     /* ADC34CLK clock frequency is derived from PLL clock */
     RCC_Clocks->ADC34CLK_Frequency = pllclk / presc;
 8000400:	6a7a      	ldr	r2, [r7, #36]	; 0x24
 8000402:	693b      	ldr	r3, [r7, #16]
 8000404:	fbb2 f2f3 	udiv	r2, r2, r3
 8000408:	687b      	ldr	r3, [r7, #4]
 800040a:	615a      	str	r2, [r3, #20]
 800040c:	e003      	b.n	8000416 <RCC_GetClocksFreq+0x1a6>
  }
  else
  {
   /* ADC34CLK clock frequency is AHB clock */
     RCC_Clocks->ADC34CLK_Frequency = RCC_Clocks->SYSCLK_Frequency;
 800040e:	687b      	ldr	r3, [r7, #4]
 8000410:	681a      	ldr	r2, [r3, #0]
 8000412:	687b      	ldr	r3, [r7, #4]
 8000414:	615a      	str	r2, [r3, #20]
  }

  /* I2C1CLK clock frequency */
  if((RCC->CFGR3 & RCC_CFGR3_I2C1SW) != RCC_CFGR3_I2C1SW)
 8000416:	4b32      	ldr	r3, [pc, #200]	; (80004e0 <RCC_GetClocksFreq+0x270>)
 8000418:	6b1b      	ldr	r3, [r3, #48]	; 0x30
 800041a:	f003 0310 	and.w	r3, r3, #16
 800041e:	2b10      	cmp	r3, #16
 8000420:	d003      	beq.n	800042a <RCC_GetClocksFreq+0x1ba>
  {
    /* I2C1 Clock is HSI Osc. */
    RCC_Clocks->I2C1CLK_Frequency = HSI_VALUE;
 8000422:	687b      	ldr	r3, [r7, #4]
 8000424:	4a2f      	ldr	r2, [pc, #188]	; (80004e4 <RCC_GetClocksFreq+0x274>)
 8000426:	619a      	str	r2, [r3, #24]
 8000428:	e003      	b.n	8000432 <RCC_GetClocksFreq+0x1c2>
  }
  else
  {
    /* I2C1 Clock is System Clock */
    RCC_Clocks->I2C1CLK_Frequency = RCC_Clocks->SYSCLK_Frequency;
 800042a:	687b      	ldr	r3, [r7, #4]
 800042c:	681a      	ldr	r2, [r3, #0]
 800042e:	687b      	ldr	r3, [r7, #4]
 8000430:	619a      	str	r2, [r3, #24]
  }

  /* I2C2CLK clock frequency */
  if((RCC->CFGR3 & RCC_CFGR3_I2C2SW) != RCC_CFGR3_I2C2SW)
 8000432:	4b2b      	ldr	r3, [pc, #172]	; (80004e0 <RCC_GetClocksFreq+0x270>)
 8000434:	6b1b      	ldr	r3, [r3, #48]	; 0x30
 8000436:	f003 0320 	and.w	r3, r3, #32
 800043a:	2b20      	cmp	r3, #32
 800043c:	d003      	beq.n	8000446 <RCC_GetClocksFreq+0x1d6>
  {
    /* I2C2 Clock is HSI Osc. */
    RCC_Clocks->I2C2CLK_Frequency = HSI_VALUE;
 800043e:	687b      	ldr	r3, [r7, #4]
 8000440:	4a28      	ldr	r2, [pc, #160]	; (80004e4 <RCC_GetClocksFreq+0x274>)
 8000442:	61da      	str	r2, [r3, #28]
 8000444:	e003      	b.n	800044e <RCC_GetClocksFreq+0x1de>
  }
  else
  {
    /* I2C2 Clock is System Clock */
    RCC_Clocks->I2C2CLK_Frequency = RCC_Clocks->SYSCLK_Frequency;
 8000446:	687b      	ldr	r3, [r7, #4]
 8000448:	681a      	ldr	r2, [r3, #0]
 800044a:	687b      	ldr	r3, [r7, #4]
 800044c:	61da      	str	r2, [r3, #28]
  }
  
    /* TIM1CLK clock frequency */
  if(((RCC->CFGR3 & RCC_CFGR3_TIM1SW) == RCC_CFGR3_TIM1SW)&& (RCC_Clocks->SYSCLK_Frequency == pllclk) \
 800044e:	4b24      	ldr	r3, [pc, #144]	; (80004e0 <RCC_GetClocksFreq+0x270>)
 8000450:	6b1b      	ldr	r3, [r3, #48]	; 0x30
 8000452:	f403 7380 	and.w	r3, r3, #256	; 0x100
 8000456:	f5b3 7f80 	cmp.w	r3, #256	; 0x100
 800045a:	d10d      	bne.n	8000478 <RCC_GetClocksFreq+0x208>
 800045c:	687b      	ldr	r3, [r7, #4]
 800045e:	681b      	ldr	r3, [r3, #0]
 8000460:	6a7a      	ldr	r2, [r7, #36]	; 0x24
 8000462:	429a      	cmp	r2, r3
 8000464:	d108      	bne.n	8000478 <RCC_GetClocksFreq+0x208>
  && (apb2presc == ahbpresc)) 
 8000466:	68fa      	ldr	r2, [r7, #12]
 8000468:	68bb      	ldr	r3, [r7, #8]
 800046a:	429a      	cmp	r2, r3
 800046c:	d104      	bne.n	8000478 <RCC_GetClocksFreq+0x208>
  {
    /* TIM1 Clock is 2 * pllclk */
    RCC_Clocks->TIM1CLK_Frequency = pllclk * 2;
 800046e:	6a7b      	ldr	r3, [r7, #36]	; 0x24
 8000470:	005a      	lsls	r2, r3, #1
 8000472:	687b      	ldr	r3, [r7, #4]
 8000474:	621a      	str	r2, [r3, #32]
 8000476:	e003      	b.n	8000480 <RCC_GetClocksFreq+0x210>
  }
  else
  {
    /* TIM1 Clock is APB2 clock. */
    RCC_Clocks->TIM1CLK_Frequency = RCC_Clocks->PCLK2_Frequency;
 8000478:	687b      	ldr	r3, [r7, #4]
 800047a:	68da      	ldr	r2, [r3, #12]
 800047c:	687b      	ldr	r3, [r7, #4]
 800047e:	621a      	str	r2, [r3, #32]
  }

    /* TIM8CLK clock frequency */
  if(((RCC->CFGR3 & RCC_CFGR3_TIM8SW) == RCC_CFGR3_TIM8SW)&& (RCC_Clocks->SYSCLK_Frequency == pllclk) \
 8000480:	4b17      	ldr	r3, [pc, #92]	; (80004e0 <RCC_GetClocksFreq+0x270>)
 8000482:	6b1b      	ldr	r3, [r3, #48]	; 0x30
 8000484:	f403 7300 	and.w	r3, r3, #512	; 0x200
 8000488:	f5b3 7f00 	cmp.w	r3, #512	; 0x200
 800048c:	d10d      	bne.n	80004aa <RCC_GetClocksFreq+0x23a>
 800048e:	687b      	ldr	r3, [r7, #4]
 8000490:	681b      	ldr	r3, [r3, #0]
 8000492:	6a7a      	ldr	r2, [r7, #36]	; 0x24
 8000494:	429a      	cmp	r2, r3
 8000496:	d108      	bne.n	80004aa <RCC_GetClocksFreq+0x23a>
  && (apb2presc == ahbpresc))
 8000498:	68fa      	ldr	r2, [r7, #12]
 800049a:	68bb      	ldr	r3, [r7, #8]
 800049c:	429a      	cmp	r2, r3
 800049e:	d104      	bne.n	80004aa <RCC_GetClocksFreq+0x23a>
  {
    /* TIM8 Clock is 2 * pllclk */
    RCC_Clocks->TIM8CLK_Frequency = pllclk * 2;
 80004a0:	6a7b      	ldr	r3, [r7, #36]	; 0x24
 80004a2:	005a      	lsls	r2, r3, #1
 80004a4:	687b      	ldr	r3, [r7, #4]
 80004a6:	625a      	str	r2, [r3, #36]	; 0x24
 80004a8:	e003      	b.n	80004b2 <RCC_GetClocksFreq+0x242>
  }
  else
  {
    /* TIM8 Clock is APB2 clock. */
    RCC_Clocks->TIM8CLK_Frequency = RCC_Clocks->PCLK2_Frequency;
 80004aa:	687b      	ldr	r3, [r7, #4]
 80004ac:	68da      	ldr	r2, [r3, #12]
 80004ae:	687b      	ldr	r3, [r7, #4]
 80004b0:	625a      	str	r2, [r3, #36]	; 0x24
  }
  
  /* USART1CLK clock frequency */
  if((RCC->CFGR3 & RCC_CFGR3_USART1SW) == 0x0)
 80004b2:	4b0b      	ldr	r3, [pc, #44]	; (80004e0 <RCC_GetClocksFreq+0x270>)
 80004b4:	6b1b      	ldr	r3, [r3, #48]	; 0x30
 80004b6:	f003 0303 	and.w	r3, r3, #3
 80004ba:	2b00      	cmp	r3, #0
 80004bc:	d104      	bne.n	80004c8 <RCC_GetClocksFreq+0x258>
  {
    /* USART Clock is PCLK */
    RCC_Clocks->USART1CLK_Frequency = RCC_Clocks->PCLK2_Frequency;
 80004be:	687b      	ldr	r3, [r7, #4]
 80004c0:	68da      	ldr	r2, [r3, #12]
 80004c2:	687b      	ldr	r3, [r7, #4]
 80004c4:	629a      	str	r2, [r3, #40]	; 0x28
 80004c6:	e029      	b.n	800051c <RCC_GetClocksFreq+0x2ac>
  }
  else if((RCC->CFGR3 & RCC_CFGR3_USART1SW) == RCC_CFGR3_USART1SW_0)
 80004c8:	4b05      	ldr	r3, [pc, #20]	; (80004e0 <RCC_GetClocksFreq+0x270>)
 80004ca:	6b1b      	ldr	r3, [r3, #48]	; 0x30
 80004cc:	f003 0303 	and.w	r3, r3, #3
 80004d0:	2b01      	cmp	r3, #1
 80004d2:	d10f      	bne.n	80004f4 <RCC_GetClocksFreq+0x284>
  {
    /* USART Clock is System Clock */
    RCC_Clocks->USART1CLK_Frequency = RCC_Clocks->SYSCLK_Frequency;
 80004d4:	687b      	ldr	r3, [r7, #4]
 80004d6:	681a      	ldr	r2, [r3, #0]
 80004d8:	687b      	ldr	r3, [r7, #4]
 80004da:	629a      	str	r2, [r3, #40]	; 0x28
 80004dc:	e01e      	b.n	800051c <RCC_GetClocksFreq+0x2ac>
 80004de:	bf00      	nop
 80004e0:	40021000 	.word	0x40021000
 80004e4:	007a1200 	.word	0x007a1200
 80004e8:	003d0900 	.word	0x003d0900
 80004ec:	20000000 	.word	0x20000000
 80004f0:	20000010 	.word	0x20000010
  }
  else if((RCC->CFGR3 & RCC_CFGR3_USART1SW) == RCC_CFGR3_USART1SW_1)
 80004f4:	4b66      	ldr	r3, [pc, #408]	; (8000690 <RCC_GetClocksFreq+0x420>)
 80004f6:	6b1b      	ldr	r3, [r3, #48]	; 0x30
 80004f8:	f003 0303 	and.w	r3, r3, #3
 80004fc:	2b02      	cmp	r3, #2
 80004fe:	d104      	bne.n	800050a <RCC_GetClocksFreq+0x29a>
  {
    /* USART Clock is LSE Osc. */
    RCC_Clocks->USART1CLK_Frequency = LSE_VALUE;
 8000500:	687b      	ldr	r3, [r7, #4]
 8000502:	f44f 4200 	mov.w	r2, #32768	; 0x8000
 8000506:	629a      	str	r2, [r3, #40]	; 0x28
 8000508:	e008      	b.n	800051c <RCC_GetClocksFreq+0x2ac>
  }
  else if((RCC->CFGR3 & RCC_CFGR3_USART1SW) == RCC_CFGR3_USART1SW)
 800050a:	4b61      	ldr	r3, [pc, #388]	; (8000690 <RCC_GetClocksFreq+0x420>)
 800050c:	6b1b      	ldr	r3, [r3, #48]	; 0x30
 800050e:	f003 0303 	and.w	r3, r3, #3
 8000512:	2b03      	cmp	r3, #3
 8000514:	d102      	bne.n	800051c <RCC_GetClocksFreq+0x2ac>
  {
    /* USART Clock is HSI Osc. */
    RCC_Clocks->USART1CLK_Frequency = HSI_VALUE;
 8000516:	687b      	ldr	r3, [r7, #4]
 8000518:	4a5e      	ldr	r2, [pc, #376]	; (8000694 <RCC_GetClocksFreq+0x424>)
 800051a:	629a      	str	r2, [r3, #40]	; 0x28
  }

  /* USART2CLK clock frequency */
  if((RCC->CFGR3 & RCC_CFGR3_USART2SW) == 0x0)
 800051c:	4b5c      	ldr	r3, [pc, #368]	; (8000690 <RCC_GetClocksFreq+0x420>)
 800051e:	6b1b      	ldr	r3, [r3, #48]	; 0x30
 8000520:	f403 3340 	and.w	r3, r3, #196608	; 0x30000
 8000524:	2b00      	cmp	r3, #0
 8000526:	d104      	bne.n	8000532 <RCC_GetClocksFreq+0x2c2>
  {
    /* USART Clock is PCLK */
    RCC_Clocks->USART2CLK_Frequency = RCC_Clocks->PCLK1_Frequency;
 8000528:	687b      	ldr	r3, [r7, #4]
 800052a:	689a      	ldr	r2, [r3, #8]
 800052c:	687b      	ldr	r3, [r7, #4]
 800052e:	62da      	str	r2, [r3, #44]	; 0x2c
 8000530:	e021      	b.n	8000576 <RCC_GetClocksFreq+0x306>
  }
  else if((RCC->CFGR3 & RCC_CFGR3_USART2SW) == RCC_CFGR3_USART2SW_0)
 8000532:	4b57      	ldr	r3, [pc, #348]	; (8000690 <RCC_GetClocksFreq+0x420>)
 8000534:	6b1b      	ldr	r3, [r3, #48]	; 0x30
 8000536:	f403 3340 	and.w	r3, r3, #196608	; 0x30000
 800053a:	f5b3 3f80 	cmp.w	r3, #65536	; 0x10000
 800053e:	d104      	bne.n	800054a <RCC_GetClocksFreq+0x2da>
  {
    /* USART Clock is System Clock */
    RCC_Clocks->USART2CLK_Frequency = RCC_Clocks->SYSCLK_Frequency;
 8000540:	687b      	ldr	r3, [r7, #4]
 8000542:	681a      	ldr	r2, [r3, #0]
 8000544:	687b      	ldr	r3, [r7, #4]
 8000546:	62da      	str	r2, [r3, #44]	; 0x2c
 8000548:	e015      	b.n	8000576 <RCC_GetClocksFreq+0x306>
  }
  else if((RCC->CFGR3 & RCC_CFGR3_USART2SW) == RCC_CFGR3_USART2SW_1)
 800054a:	4b51      	ldr	r3, [pc, #324]	; (8000690 <RCC_GetClocksFreq+0x420>)
 800054c:	6b1b      	ldr	r3, [r3, #48]	; 0x30
 800054e:	f403 3340 	and.w	r3, r3, #196608	; 0x30000
 8000552:	f5b3 3f00 	cmp.w	r3, #131072	; 0x20000
 8000556:	d104      	bne.n	8000562 <RCC_GetClocksFreq+0x2f2>
  {
    /* USART Clock is LSE Osc. */
    RCC_Clocks->USART2CLK_Frequency = LSE_VALUE;
 8000558:	687b      	ldr	r3, [r7, #4]
 800055a:	f44f 4200 	mov.w	r2, #32768	; 0x8000
 800055e:	62da      	str	r2, [r3, #44]	; 0x2c
 8000560:	e009      	b.n	8000576 <RCC_GetClocksFreq+0x306>
  }
  else if((RCC->CFGR3 & RCC_CFGR3_USART2SW) == RCC_CFGR3_USART2SW)
 8000562:	4b4b      	ldr	r3, [pc, #300]	; (8000690 <RCC_GetClocksFreq+0x420>)
 8000564:	6b1b      	ldr	r3, [r3, #48]	; 0x30
 8000566:	f403 3340 	and.w	r3, r3, #196608	; 0x30000
 800056a:	f5b3 3f40 	cmp.w	r3, #196608	; 0x30000
 800056e:	d102      	bne.n	8000576 <RCC_GetClocksFreq+0x306>
  {
    /* USART Clock is HSI Osc. */
    RCC_Clocks->USART2CLK_Frequency = HSI_VALUE;
 8000570:	687b      	ldr	r3, [r7, #4]
 8000572:	4a48      	ldr	r2, [pc, #288]	; (8000694 <RCC_GetClocksFreq+0x424>)
 8000574:	62da      	str	r2, [r3, #44]	; 0x2c
  }    

  /* USART3CLK clock frequency */
  if((RCC->CFGR3 & RCC_CFGR3_USART3SW) == 0x0)
 8000576:	4b46      	ldr	r3, [pc, #280]	; (8000690 <RCC_GetClocksFreq+0x420>)
 8000578:	6b1b      	ldr	r3, [r3, #48]	; 0x30
 800057a:	f403 2340 	and.w	r3, r3, #786432	; 0xc0000
 800057e:	2b00      	cmp	r3, #0
 8000580:	d104      	bne.n	800058c <RCC_GetClocksFreq+0x31c>
  {
    /* USART Clock is PCLK */
    RCC_Clocks->USART3CLK_Frequency = RCC_Clocks->PCLK1_Frequency;
 8000582:	687b      	ldr	r3, [r7, #4]
 8000584:	689a      	ldr	r2, [r3, #8]
 8000586:	687b      	ldr	r3, [r7, #4]
 8000588:	631a      	str	r2, [r3, #48]	; 0x30
 800058a:	e021      	b.n	80005d0 <RCC_GetClocksFreq+0x360>
  }
  else if((RCC->CFGR3 & RCC_CFGR3_USART3SW) == RCC_CFGR3_USART3SW_0)
 800058c:	4b40      	ldr	r3, [pc, #256]	; (8000690 <RCC_GetClocksFreq+0x420>)
 800058e:	6b1b      	ldr	r3, [r3, #48]	; 0x30
 8000590:	f403 2340 	and.w	r3, r3, #786432	; 0xc0000
 8000594:	f5b3 2f80 	cmp.w	r3, #262144	; 0x40000
 8000598:	d104      	bne.n	80005a4 <RCC_GetClocksFreq+0x334>
  {
    /* USART Clock is System Clock */
    RCC_Clocks->USART3CLK_Frequency = RCC_Clocks->SYSCLK_Frequency;
 800059a:	687b      	ldr	r3, [r7, #4]
 800059c:	681a      	ldr	r2, [r3, #0]
 800059e:	687b      	ldr	r3, [r7, #4]
 80005a0:	631a      	str	r2, [r3, #48]	; 0x30
 80005a2:	e015      	b.n	80005d0 <RCC_GetClocksFreq+0x360>
  }
  else if((RCC->CFGR3 & RCC_CFGR3_USART3SW) == RCC_CFGR3_USART3SW_1)
 80005a4:	4b3a      	ldr	r3, [pc, #232]	; (8000690 <RCC_GetClocksFreq+0x420>)
 80005a6:	6b1b      	ldr	r3, [r3, #48]	; 0x30
 80005a8:	f403 2340 	and.w	r3, r3, #786432	; 0xc0000
 80005ac:	f5b3 2f00 	cmp.w	r3, #524288	; 0x80000
 80005b0:	d104      	bne.n	80005bc <RCC_GetClocksFreq+0x34c>
  {
    /* USART Clock is LSE Osc. */
    RCC_Clocks->USART3CLK_Frequency = LSE_VALUE;
 80005b2:	687b      	ldr	r3, [r7, #4]
 80005b4:	f44f 4200 	mov.w	r2, #32768	; 0x8000
 80005b8:	631a      	str	r2, [r3, #48]	; 0x30
 80005ba:	e009      	b.n	80005d0 <RCC_GetClocksFreq+0x360>
  }
  else if((RCC->CFGR3 & RCC_CFGR3_USART3SW) == RCC_CFGR3_USART3SW)
 80005bc:	4b34      	ldr	r3, [pc, #208]	; (8000690 <RCC_GetClocksFreq+0x420>)
 80005be:	6b1b      	ldr	r3, [r3, #48]	; 0x30
 80005c0:	f403 2340 	and.w	r3, r3, #786432	; 0xc0000
 80005c4:	f5b3 2f40 	cmp.w	r3, #786432	; 0xc0000
 80005c8:	d102      	bne.n	80005d0 <RCC_GetClocksFreq+0x360>
  {
    /* USART Clock is HSI Osc. */
    RCC_Clocks->USART3CLK_Frequency = HSI_VALUE;
 80005ca:	687b      	ldr	r3, [r7, #4]
 80005cc:	4a31      	ldr	r2, [pc, #196]	; (8000694 <RCC_GetClocksFreq+0x424>)
 80005ce:	631a      	str	r2, [r3, #48]	; 0x30
  }
  
    /* UART4CLK clock frequency */
  if((RCC->CFGR3 & RCC_CFGR3_UART4SW) == 0x0)
 80005d0:	4b2f      	ldr	r3, [pc, #188]	; (8000690 <RCC_GetClocksFreq+0x420>)
 80005d2:	6b1b      	ldr	r3, [r3, #48]	; 0x30
 80005d4:	f403 1340 	and.w	r3, r3, #3145728	; 0x300000
 80005d8:	2b00      	cmp	r3, #0
 80005da:	d104      	bne.n	80005e6 <RCC_GetClocksFreq+0x376>
  {
    /* USART Clock is PCLK */
    RCC_Clocks->UART4CLK_Frequency = RCC_Clocks->PCLK1_Frequency;
 80005dc:	687b      	ldr	r3, [r7, #4]
 80005de:	689a      	ldr	r2, [r3, #8]
 80005e0:	687b      	ldr	r3, [r7, #4]
 80005e2:	635a      	str	r2, [r3, #52]	; 0x34
 80005e4:	e021      	b.n	800062a <RCC_GetClocksFreq+0x3ba>
  }
  else if((RCC->CFGR3 & RCC_CFGR3_UART4SW) == RCC_CFGR3_UART4SW_0)
 80005e6:	4b2a      	ldr	r3, [pc, #168]	; (8000690 <RCC_GetClocksFreq+0x420>)
 80005e8:	6b1b      	ldr	r3, [r3, #48]	; 0x30
 80005ea:	f403 1340 	and.w	r3, r3, #3145728	; 0x300000
 80005ee:	f5b3 1f80 	cmp.w	r3, #1048576	; 0x100000
 80005f2:	d104      	bne.n	80005fe <RCC_GetClocksFreq+0x38e>
  {
    /* USART Clock is System Clock */
    RCC_Clocks->UART4CLK_Frequency = RCC_Clocks->SYSCLK_Frequency;
 80005f4:	687b      	ldr	r3, [r7, #4]
 80005f6:	681a      	ldr	r2, [r3, #0]
 80005f8:	687b      	ldr	r3, [r7, #4]
 80005fa:	635a      	str	r2, [r3, #52]	; 0x34
 80005fc:	e015      	b.n	800062a <RCC_GetClocksFreq+0x3ba>
  }
  else if((RCC->CFGR3 & RCC_CFGR3_UART4SW) == RCC_CFGR3_UART4SW_1)
 80005fe:	4b24      	ldr	r3, [pc, #144]	; (8000690 <RCC_GetClocksFreq+0x420>)
 8000600:	6b1b      	ldr	r3, [r3, #48]	; 0x30
 8000602:	f403 1340 	and.w	r3, r3, #3145728	; 0x300000
 8000606:	f5b3 1f00 	cmp.w	r3, #2097152	; 0x200000
 800060a:	d104      	bne.n	8000616 <RCC_GetClocksFreq+0x3a6>
  {
    /* USART Clock is LSE Osc. */
    RCC_Clocks->UART4CLK_Frequency = LSE_VALUE;
 800060c:	687b      	ldr	r3, [r7, #4]
 800060e:	f44f 4200 	mov.w	r2, #32768	; 0x8000
 8000612:	635a      	str	r2, [r3, #52]	; 0x34
 8000614:	e009      	b.n	800062a <RCC_GetClocksFreq+0x3ba>
  }
  else if((RCC->CFGR3 & RCC_CFGR3_UART4SW) == RCC_CFGR3_UART4SW)
 8000616:	4b1e      	ldr	r3, [pc, #120]	; (8000690 <RCC_GetClocksFreq+0x420>)
 8000618:	6b1b      	ldr	r3, [r3, #48]	; 0x30
 800061a:	f403 1340 	and.w	r3, r3, #3145728	; 0x300000
 800061e:	f5b3 1f40 	cmp.w	r3, #3145728	; 0x300000
 8000622:	d102      	bne.n	800062a <RCC_GetClocksFreq+0x3ba>
  {
    /* USART Clock is HSI Osc. */
    RCC_Clocks->UART4CLK_Frequency = HSI_VALUE;
 8000624:	687b      	ldr	r3, [r7, #4]
 8000626:	4a1b      	ldr	r2, [pc, #108]	; (8000694 <RCC_GetClocksFreq+0x424>)
 8000628:	635a      	str	r2, [r3, #52]	; 0x34
  }   
  
  /* UART5CLK clock frequency */
  if((RCC->CFGR3 & RCC_CFGR3_UART5SW) == 0x0)
 800062a:	4b19      	ldr	r3, [pc, #100]	; (8000690 <RCC_GetClocksFreq+0x420>)
 800062c:	6b1b      	ldr	r3, [r3, #48]	; 0x30
 800062e:	f403 0340 	and.w	r3, r3, #12582912	; 0xc00000
 8000632:	2b00      	cmp	r3, #0
 8000634:	d104      	bne.n	8000640 <RCC_GetClocksFreq+0x3d0>
  {
    /* USART Clock is PCLK */
    RCC_Clocks->UART5CLK_Frequency = RCC_Clocks->PCLK1_Frequency;
 8000636:	687b      	ldr	r3, [r7, #4]
 8000638:	689a      	ldr	r2, [r3, #8]
 800063a:	687b      	ldr	r3, [r7, #4]
 800063c:	639a      	str	r2, [r3, #56]	; 0x38
  else if((RCC->CFGR3 & RCC_CFGR3_UART5SW) == RCC_CFGR3_UART5SW)
  {
    /* USART Clock is HSI Osc. */
    RCC_Clocks->UART5CLK_Frequency = HSI_VALUE;
  } 
}
 800063e:	e021      	b.n	8000684 <RCC_GetClocksFreq+0x414>
  else if((RCC->CFGR3 & RCC_CFGR3_UART5SW) == RCC_CFGR3_UART5SW_0)
 8000640:	4b13      	ldr	r3, [pc, #76]	; (8000690 <RCC_GetClocksFreq+0x420>)
 8000642:	6b1b      	ldr	r3, [r3, #48]	; 0x30
 8000644:	f403 0340 	and.w	r3, r3, #12582912	; 0xc00000
 8000648:	f5b3 0f80 	cmp.w	r3, #4194304	; 0x400000
 800064c:	d104      	bne.n	8000658 <RCC_GetClocksFreq+0x3e8>
    RCC_Clocks->UART5CLK_Frequency = RCC_Clocks->SYSCLK_Frequency;
 800064e:	687b      	ldr	r3, [r7, #4]
 8000650:	681a      	ldr	r2, [r3, #0]
 8000652:	687b      	ldr	r3, [r7, #4]
 8000654:	639a      	str	r2, [r3, #56]	; 0x38
}
 8000656:	e015      	b.n	8000684 <RCC_GetClocksFreq+0x414>
  else if((RCC->CFGR3 & RCC_CFGR3_UART5SW) == RCC_CFGR3_UART5SW_1)
 8000658:	4b0d      	ldr	r3, [pc, #52]	; (8000690 <RCC_GetClocksFreq+0x420>)
 800065a:	6b1b      	ldr	r3, [r3, #48]	; 0x30
 800065c:	f403 0340 	and.w	r3, r3, #12582912	; 0xc00000
 8000660:	f5b3 0f00 	cmp.w	r3, #8388608	; 0x800000
 8000664:	d104      	bne.n	8000670 <RCC_GetClocksFreq+0x400>
    RCC_Clocks->UART5CLK_Frequency = LSE_VALUE;
 8000666:	687b      	ldr	r3, [r7, #4]
 8000668:	f44f 4200 	mov.w	r2, #32768	; 0x8000
 800066c:	639a      	str	r2, [r3, #56]	; 0x38
}
 800066e:	e009      	b.n	8000684 <RCC_GetClocksFreq+0x414>
  else if((RCC->CFGR3 & RCC_CFGR3_UART5SW) == RCC_CFGR3_UART5SW)
 8000670:	4b07      	ldr	r3, [pc, #28]	; (8000690 <RCC_GetClocksFreq+0x420>)
 8000672:	6b1b      	ldr	r3, [r3, #48]	; 0x30
 8000674:	f403 0340 	and.w	r3, r3, #12582912	; 0xc00000
 8000678:	f5b3 0f40 	cmp.w	r3, #12582912	; 0xc00000
 800067c:	d102      	bne.n	8000684 <RCC_GetClocksFreq+0x414>
    RCC_Clocks->UART5CLK_Frequency = HSI_VALUE;
 800067e:	687b      	ldr	r3, [r7, #4]
 8000680:	4a04      	ldr	r2, [pc, #16]	; (8000694 <RCC_GetClocksFreq+0x424>)
 8000682:	639a      	str	r2, [r3, #56]	; 0x38
}
 8000684:	bf00      	nop
 8000686:	372c      	adds	r7, #44	; 0x2c
 8000688:	46bd      	mov	sp, r7
 800068a:	f85d 7b04 	ldr.w	r7, [sp], #4
 800068e:	4770      	bx	lr
 8000690:	40021000 	.word	0x40021000
 8000694:	007a1200 	.word	0x007a1200

08000698 <USART_SendData>:
  *         following values: USART1 or USART2 or USART3 or UART4 or UART5.
  * @param  Data: the data to transmit.
  * @retval None
  */
void USART_SendData(USART_TypeDef* USARTx, uint16_t Data)
{
 8000698:	b480      	push	{r7}
 800069a:	b083      	sub	sp, #12
 800069c:	af00      	add	r7, sp, #0
 800069e:	6078      	str	r0, [r7, #4]
 80006a0:	460b      	mov	r3, r1
 80006a2:	807b      	strh	r3, [r7, #2]
  /* Check the parameters */
  assert_param(IS_USART_ALL_PERIPH(USARTx));
  assert_param(IS_USART_DATA(Data)); 

  /* Transmit Data */
  USARTx->TDR = (Data & (uint16_t)0x01FF);
 80006a4:	887b      	ldrh	r3, [r7, #2]
 80006a6:	f3c3 0308 	ubfx	r3, r3, #0, #9
 80006aa:	b29a      	uxth	r2, r3
 80006ac:	687b      	ldr	r3, [r7, #4]
 80006ae:	851a      	strh	r2, [r3, #40]	; 0x28
}
 80006b0:	bf00      	nop
 80006b2:	370c      	adds	r7, #12
 80006b4:	46bd      	mov	sp, r7
 80006b6:	f85d 7b04 	ldr.w	r7, [sp], #4
 80006ba:	4770      	bx	lr

080006bc <USART_ITConfig>:
  * @param  NewState: new state of the specified USARTx interrupts.
  *         This parameter can be: ENABLE or DISABLE.
  * @retval None
  */
void USART_ITConfig(USART_TypeDef* USARTx, uint32_t USART_IT, FunctionalState NewState)
{
 80006bc:	b480      	push	{r7}
 80006be:	b089      	sub	sp, #36	; 0x24
 80006c0:	af00      	add	r7, sp, #0
 80006c2:	60f8      	str	r0, [r7, #12]
 80006c4:	60b9      	str	r1, [r7, #8]
 80006c6:	4613      	mov	r3, r2
 80006c8:	71fb      	strb	r3, [r7, #7]
  uint32_t usartreg = 0, itpos = 0, itmask = 0;
 80006ca:	2300      	movs	r3, #0
 80006cc:	61bb      	str	r3, [r7, #24]
 80006ce:	2300      	movs	r3, #0
 80006d0:	617b      	str	r3, [r7, #20]
 80006d2:	2300      	movs	r3, #0
 80006d4:	613b      	str	r3, [r7, #16]
  uint32_t usartxbase = 0;
 80006d6:	2300      	movs	r3, #0
 80006d8:	61fb      	str	r3, [r7, #28]
  /* Check the parameters */
  assert_param(IS_USART_ALL_PERIPH(USARTx));
  assert_param(IS_USART_CONFIG_IT(USART_IT));
  assert_param(IS_FUNCTIONAL_STATE(NewState));
  
  usartxbase = (uint32_t)USARTx;
 80006da:	68fb      	ldr	r3, [r7, #12]
 80006dc:	61fb      	str	r3, [r7, #28]

  /* Get the USART register index */
  usartreg = (((uint16_t)USART_IT) >> 0x08);
 80006de:	68bb      	ldr	r3, [r7, #8]
 80006e0:	b29b      	uxth	r3, r3
 80006e2:	0a1b      	lsrs	r3, r3, #8
 80006e4:	b29b      	uxth	r3, r3
 80006e6:	61bb      	str	r3, [r7, #24]

  /* Get the interrupt position */
  itpos = USART_IT & IT_MASK;
 80006e8:	68bb      	ldr	r3, [r7, #8]
 80006ea:	b2db      	uxtb	r3, r3
 80006ec:	617b      	str	r3, [r7, #20]
  itmask = (((uint32_t)0x01) << itpos);
 80006ee:	2201      	movs	r2, #1
 80006f0:	697b      	ldr	r3, [r7, #20]
 80006f2:	fa02 f303 	lsl.w	r3, r2, r3
 80006f6:	613b      	str	r3, [r7, #16]

  if (usartreg == 0x02) /* The IT is in CR2 register */
 80006f8:	69bb      	ldr	r3, [r7, #24]
 80006fa:	2b02      	cmp	r3, #2
 80006fc:	d103      	bne.n	8000706 <USART_ITConfig+0x4a>
  {
    usartxbase += 0x04;
 80006fe:	69fb      	ldr	r3, [r7, #28]
 8000700:	3304      	adds	r3, #4
 8000702:	61fb      	str	r3, [r7, #28]
 8000704:	e005      	b.n	8000712 <USART_ITConfig+0x56>
  }
  else if (usartreg == 0x03) /* The IT is in CR3 register */
 8000706:	69bb      	ldr	r3, [r7, #24]
 8000708:	2b03      	cmp	r3, #3
 800070a:	d102      	bne.n	8000712 <USART_ITConfig+0x56>
  {
    usartxbase += 0x08;
 800070c:	69fb      	ldr	r3, [r7, #28]
 800070e:	3308      	adds	r3, #8
 8000710:	61fb      	str	r3, [r7, #28]
  }
  else /* The IT is in CR1 register */
  {
  }
  if (NewState != DISABLE)
 8000712:	79fb      	ldrb	r3, [r7, #7]
 8000714:	2b00      	cmp	r3, #0
 8000716:	d006      	beq.n	8000726 <USART_ITConfig+0x6a>
  {
    *(__IO uint32_t*)usartxbase  |= itmask;
 8000718:	69fb      	ldr	r3, [r7, #28]
 800071a:	6819      	ldr	r1, [r3, #0]
 800071c:	69fb      	ldr	r3, [r7, #28]
 800071e:	693a      	ldr	r2, [r7, #16]
 8000720:	430a      	orrs	r2, r1
 8000722:	601a      	str	r2, [r3, #0]
  }
  else
  {
    *(__IO uint32_t*)usartxbase &= ~itmask;
  }
}
 8000724:	e006      	b.n	8000734 <USART_ITConfig+0x78>
    *(__IO uint32_t*)usartxbase &= ~itmask;
 8000726:	69fb      	ldr	r3, [r7, #28]
 8000728:	6819      	ldr	r1, [r3, #0]
 800072a:	693b      	ldr	r3, [r7, #16]
 800072c:	43da      	mvns	r2, r3
 800072e:	69fb      	ldr	r3, [r7, #28]
 8000730:	400a      	ands	r2, r1
 8000732:	601a      	str	r2, [r3, #0]
}
 8000734:	bf00      	nop
 8000736:	3724      	adds	r7, #36	; 0x24
 8000738:	46bd      	mov	sp, r7
 800073a:	f85d 7b04 	ldr.w	r7, [sp], #4
 800073e:	4770      	bx	lr

08000740 <USART_GetFlagStatus>:
  *         @arg USART_FLAG_FE:  Framing Error flag.
  *         @arg USART_FLAG_PE:  Parity Error flag.
  * @retval The new state of USART_FLAG (SET or RESET).
  */
FlagStatus USART_GetFlagStatus(USART_TypeDef* USARTx, uint32_t USART_FLAG)
{
 8000740:	b480      	push	{r7}
 8000742:	b085      	sub	sp, #20
 8000744:	af00      	add	r7, sp, #0
 8000746:	6078      	str	r0, [r7, #4]
 8000748:	6039      	str	r1, [r7, #0]
  FlagStatus bitstatus = RESET;
 800074a:	2300      	movs	r3, #0
 800074c:	73fb      	strb	r3, [r7, #15]
  /* Check the parameters */
  assert_param(IS_USART_ALL_PERIPH(USARTx));
  assert_param(IS_USART_FLAG(USART_FLAG));
  
  if ((USARTx->ISR & USART_FLAG) != (uint16_t)RESET)
 800074e:	687b      	ldr	r3, [r7, #4]
 8000750:	69da      	ldr	r2, [r3, #28]
 8000752:	683b      	ldr	r3, [r7, #0]
 8000754:	4013      	ands	r3, r2
 8000756:	2b00      	cmp	r3, #0
 8000758:	d002      	beq.n	8000760 <USART_GetFlagStatus+0x20>
  {
    bitstatus = SET;
 800075a:	2301      	movs	r3, #1
 800075c:	73fb      	strb	r3, [r7, #15]
 800075e:	e001      	b.n	8000764 <USART_GetFlagStatus+0x24>
  }
  else
  {
    bitstatus = RESET;
 8000760:	2300      	movs	r3, #0
 8000762:	73fb      	strb	r3, [r7, #15]
  }
  return bitstatus;
 8000764:	7bfb      	ldrb	r3, [r7, #15]
}
 8000766:	4618      	mov	r0, r3
 8000768:	3714      	adds	r7, #20
 800076a:	46bd      	mov	sp, r7
 800076c:	f85d 7b04 	ldr.w	r7, [sp], #4
 8000770:	4770      	bx	lr

08000772 <USART_GetITStatus>:
  *         @arg USART_IT_FE:  Framing Error interrupt.
  *         @arg USART_IT_PE:  Parity Error interrupt.
  * @retval The new state of USART_IT (SET or RESET).
  */
ITStatus USART_GetITStatus(USART_TypeDef* USARTx, uint32_t USART_IT)
{
 8000772:	b480      	push	{r7}
 8000774:	b087      	sub	sp, #28
 8000776:	af00      	add	r7, sp, #0
 8000778:	6078      	str	r0, [r7, #4]
 800077a:	6039      	str	r1, [r7, #0]
  uint32_t bitpos = 0, itmask = 0, usartreg = 0;
 800077c:	2300      	movs	r3, #0
 800077e:	60fb      	str	r3, [r7, #12]
 8000780:	2300      	movs	r3, #0
 8000782:	617b      	str	r3, [r7, #20]
 8000784:	2300      	movs	r3, #0
 8000786:	60bb      	str	r3, [r7, #8]
  ITStatus bitstatus = RESET;
 8000788:	2300      	movs	r3, #0
 800078a:	74fb      	strb	r3, [r7, #19]
  /* Check the parameters */
  assert_param(IS_USART_ALL_PERIPH(USARTx));
  assert_param(IS_USART_GET_IT(USART_IT)); 
  
  /* Get the USART register index */
  usartreg = (((uint16_t)USART_IT) >> 0x08);
 800078c:	683b      	ldr	r3, [r7, #0]
 800078e:	b29b      	uxth	r3, r3
 8000790:	0a1b      	lsrs	r3, r3, #8
 8000792:	b29b      	uxth	r3, r3
 8000794:	60bb      	str	r3, [r7, #8]
  /* Get the interrupt position */
  itmask = USART_IT & IT_MASK;
 8000796:	683b      	ldr	r3, [r7, #0]
 8000798:	b2db      	uxtb	r3, r3
 800079a:	617b      	str	r3, [r7, #20]
  itmask = (uint32_t)0x01 << itmask;
 800079c:	2201      	movs	r2, #1
 800079e:	697b      	ldr	r3, [r7, #20]
 80007a0:	fa02 f303 	lsl.w	r3, r2, r3
 80007a4:	617b      	str	r3, [r7, #20]
  
  if (usartreg == 0x01) /* The IT  is in CR1 register */
 80007a6:	68bb      	ldr	r3, [r7, #8]
 80007a8:	2b01      	cmp	r3, #1
 80007aa:	d105      	bne.n	80007b8 <USART_GetITStatus+0x46>
  {
    itmask &= USARTx->CR1;
 80007ac:	687b      	ldr	r3, [r7, #4]
 80007ae:	681b      	ldr	r3, [r3, #0]
 80007b0:	697a      	ldr	r2, [r7, #20]
 80007b2:	4013      	ands	r3, r2
 80007b4:	617b      	str	r3, [r7, #20]
 80007b6:	e00d      	b.n	80007d4 <USART_GetITStatus+0x62>
  }
  else if (usartreg == 0x02) /* The IT  is in CR2 register */
 80007b8:	68bb      	ldr	r3, [r7, #8]
 80007ba:	2b02      	cmp	r3, #2
 80007bc:	d105      	bne.n	80007ca <USART_GetITStatus+0x58>
  {
    itmask &= USARTx->CR2;
 80007be:	687b      	ldr	r3, [r7, #4]
 80007c0:	685b      	ldr	r3, [r3, #4]
 80007c2:	697a      	ldr	r2, [r7, #20]
 80007c4:	4013      	ands	r3, r2
 80007c6:	617b      	str	r3, [r7, #20]
 80007c8:	e004      	b.n	80007d4 <USART_GetITStatus+0x62>
  }
  else /* The IT  is in CR3 register */
  {
    itmask &= USARTx->CR3;
 80007ca:	687b      	ldr	r3, [r7, #4]
 80007cc:	689b      	ldr	r3, [r3, #8]
 80007ce:	697a      	ldr	r2, [r7, #20]
 80007d0:	4013      	ands	r3, r2
 80007d2:	617b      	str	r3, [r7, #20]
  }
  
  bitpos = USART_IT >> 0x10;
 80007d4:	683b      	ldr	r3, [r7, #0]
 80007d6:	0c1b      	lsrs	r3, r3, #16
 80007d8:	60fb      	str	r3, [r7, #12]
  bitpos = (uint32_t)0x01 << bitpos;
 80007da:	2201      	movs	r2, #1
 80007dc:	68fb      	ldr	r3, [r7, #12]
 80007de:	fa02 f303 	lsl.w	r3, r2, r3
 80007e2:	60fb      	str	r3, [r7, #12]
  bitpos &= USARTx->ISR;
 80007e4:	687b      	ldr	r3, [r7, #4]
 80007e6:	69db      	ldr	r3, [r3, #28]
 80007e8:	68fa      	ldr	r2, [r7, #12]
 80007ea:	4013      	ands	r3, r2
 80007ec:	60fb      	str	r3, [r7, #12]
  if ((itmask != (uint16_t)RESET)&&(bitpos != (uint16_t)RESET))
 80007ee:	697b      	ldr	r3, [r7, #20]
 80007f0:	2b00      	cmp	r3, #0
 80007f2:	d005      	beq.n	8000800 <USART_GetITStatus+0x8e>
 80007f4:	68fb      	ldr	r3, [r7, #12]
 80007f6:	2b00      	cmp	r3, #0
 80007f8:	d002      	beq.n	8000800 <USART_GetITStatus+0x8e>
  {
    bitstatus = SET;
 80007fa:	2301      	movs	r3, #1
 80007fc:	74fb      	strb	r3, [r7, #19]
 80007fe:	e001      	b.n	8000804 <USART_GetITStatus+0x92>
  }
  else
  {
    bitstatus = RESET;
 8000800:	2300      	movs	r3, #0
 8000802:	74fb      	strb	r3, [r7, #19]
  }
  
  return bitstatus;  
 8000804:	7cfb      	ldrb	r3, [r7, #19]
}
 8000806:	4618      	mov	r0, r3
 8000808:	371c      	adds	r7, #28
 800080a:	46bd      	mov	sp, r7
 800080c:	f85d 7b04 	ldr.w	r7, [sp], #4
 8000810:	4770      	bx	lr
	...

08000814 <NVIC_EnableIRQ>:
    The interrupt number cannot be a negative value.

    \param [in]      IRQn  Number of the external interrupt to enable
 */
static __INLINE void NVIC_EnableIRQ(IRQn_Type IRQn)
{
 8000814:	b480      	push	{r7}
 8000816:	b083      	sub	sp, #12
 8000818:	af00      	add	r7, sp, #0
 800081a:	4603      	mov	r3, r0
 800081c:	71fb      	strb	r3, [r7, #7]
/*  NVIC->ISER[((uint32_t)(IRQn) >> 5)] = (1 << ((uint32_t)(IRQn) & 0x1F));  enable interrupt */
  NVIC->ISER[(uint32_t)((int32_t)IRQn) >> 5] = (uint32_t)(1 << ((uint32_t)((int32_t)IRQn) & (uint32_t)0x1F)); /* enable interrupt */
 800081e:	79fb      	ldrb	r3, [r7, #7]
 8000820:	f003 031f 	and.w	r3, r3, #31
 8000824:	2201      	movs	r2, #1
 8000826:	fa02 f103 	lsl.w	r1, r2, r3
 800082a:	4a06      	ldr	r2, [pc, #24]	; (8000844 <NVIC_EnableIRQ+0x30>)
 800082c:	f997 3007 	ldrsb.w	r3, [r7, #7]
 8000830:	095b      	lsrs	r3, r3, #5
 8000832:	f842 1023 	str.w	r1, [r2, r3, lsl #2]
}
 8000836:	bf00      	nop
 8000838:	370c      	adds	r7, #12
 800083a:	46bd      	mov	sp, r7
 800083c:	f85d 7b04 	ldr.w	r7, [sp], #4
 8000840:	4770      	bx	lr
 8000842:	bf00      	nop
 8000844:	e000e100 	.word	0xe000e100

08000848 <uart_put_char>:
        UART_COUNT--;
    }
    return val;
}

void uart_put_char(uint8_t c) {
 8000848:	b580      	push	{r7, lr}
 800084a:	b082      	sub	sp, #8
 800084c:	af00      	add	r7, sp, #0
 800084e:	4603      	mov	r3, r0
 8000850:	71fb      	strb	r3, [r7, #7]
    USART_SendData(USART2, (uint8_t)c);
 8000852:	79fb      	ldrb	r3, [r7, #7]
 8000854:	b29b      	uxth	r3, r3
 8000856:	4619      	mov	r1, r3
 8000858:	4807      	ldr	r0, [pc, #28]	; (8000878 <uart_put_char+0x30>)
 800085a:	f7ff ff1d 	bl	8000698 <USART_SendData>
    while(USART_GetFlagStatus(USART2, USART_FLAG_TXE)  == RESET){}
 800085e:	bf00      	nop
 8000860:	2180      	movs	r1, #128	; 0x80
 8000862:	4805      	ldr	r0, [pc, #20]	; (8000878 <uart_put_char+0x30>)
 8000864:	f7ff ff6c 	bl	8000740 <USART_GetFlagStatus>
 8000868:	4603      	mov	r3, r0
 800086a:	2b00      	cmp	r3, #0
 800086c:	d0f8      	beq.n	8000860 <uart_put_char+0x18>
}
 800086e:	bf00      	nop
 8000870:	bf00      	nop
 8000872:	3708      	adds	r7, #8
 8000874:	46bd      	mov	sp, r7
 8000876:	bd80      	pop	{r7, pc}
 8000878:	40004400 	.word	0x40004400

0800087c <_write_r>:

int _write_r(struct _reent *r, int file, char *ptr, int len) {
 800087c:	b580      	push	{r7, lr}
 800087e:	b086      	sub	sp, #24
 8000880:	af00      	add	r7, sp, #0
 8000882:	60f8      	str	r0, [r7, #12]
 8000884:	60b9      	str	r1, [r7, #8]
 8000886:	607a      	str	r2, [r7, #4]
 8000888:	603b      	str	r3, [r7, #0]
    int n;

    for (n = 0; n < len; n++) {
 800088a:	2300      	movs	r3, #0
 800088c:	617b      	str	r3, [r7, #20]
 800088e:	e012      	b.n	80008b6 <_write_r+0x3a>
        if (ptr[n] == '\n') {
 8000890:	697b      	ldr	r3, [r7, #20]
 8000892:	687a      	ldr	r2, [r7, #4]
 8000894:	4413      	add	r3, r2
 8000896:	781b      	ldrb	r3, [r3, #0]
 8000898:	2b0a      	cmp	r3, #10
 800089a:	d102      	bne.n	80008a2 <_write_r+0x26>
            uart_put_char('\r');
 800089c:	200d      	movs	r0, #13
 800089e:	f7ff ffd3 	bl	8000848 <uart_put_char>
        }
        uart_put_char(ptr[n] & (uint16_t)0x01FF);
 80008a2:	697b      	ldr	r3, [r7, #20]
 80008a4:	687a      	ldr	r2, [r7, #4]
 80008a6:	4413      	add	r3, r2
 80008a8:	781b      	ldrb	r3, [r3, #0]
 80008aa:	4618      	mov	r0, r3
 80008ac:	f7ff ffcc 	bl	8000848 <uart_put_char>
    for (n = 0; n < len; n++) {
 80008b0:	697b      	ldr	r3, [r7, #20]
 80008b2:	3301      	adds	r3, #1
 80008b4:	617b      	str	r3, [r7, #20]
 80008b6:	697a      	ldr	r2, [r7, #20]
 80008b8:	683b      	ldr	r3, [r7, #0]
 80008ba:	429a      	cmp	r2, r3
 80008bc:	dbe8      	blt.n	8000890 <_write_r+0x14>
    }

    return len;
 80008be:	683b      	ldr	r3, [r7, #0]
}
 80008c0:	4618      	mov	r0, r3
 80008c2:	3718      	adds	r7, #24
 80008c4:	46bd      	mov	sp, r7
 80008c6:	bd80      	pop	{r7, pc}

080008c8 <USART2_IRQHandler>:

void USART2_IRQHandler(void)
{
 80008c8:	b580      	push	{r7, lr}
 80008ca:	af00      	add	r7, sp, #0
    if(USART_GetITStatus(USART2, USART_IT_RXNE) != RESET)
 80008cc:	4915      	ldr	r1, [pc, #84]	; (8000924 <USART2_IRQHandler+0x5c>)
 80008ce:	4816      	ldr	r0, [pc, #88]	; (8000928 <USART2_IRQHandler+0x60>)
 80008d0:	f7ff ff4f 	bl	8000772 <USART_GetITStatus>
 80008d4:	4603      	mov	r3, r0
 80008d6:	2b00      	cmp	r3, #0
 80008d8:	d021      	beq.n	800091e <USART2_IRQHandler+0x56>
    {
        UART_BUFFER[UART_END_IDX++] = (uint8_t)(USART2->RDR & 0xFF);
 80008da:	4b13      	ldr	r3, [pc, #76]	; (8000928 <USART2_IRQHandler+0x60>)
 80008dc:	8c9b      	ldrh	r3, [r3, #36]	; 0x24
 80008de:	b299      	uxth	r1, r3
 80008e0:	4b12      	ldr	r3, [pc, #72]	; (800092c <USART2_IRQHandler+0x64>)
 80008e2:	781b      	ldrb	r3, [r3, #0]
 80008e4:	b2db      	uxtb	r3, r3
 80008e6:	1c5a      	adds	r2, r3, #1
 80008e8:	b2d0      	uxtb	r0, r2
 80008ea:	4a10      	ldr	r2, [pc, #64]	; (800092c <USART2_IRQHandler+0x64>)
 80008ec:	7010      	strb	r0, [r2, #0]
 80008ee:	461a      	mov	r2, r3
 80008f0:	b2c9      	uxtb	r1, r1
 80008f2:	4b0f      	ldr	r3, [pc, #60]	; (8000930 <USART2_IRQHandler+0x68>)
 80008f4:	5499      	strb	r1, [r3, r2]
        if (UART_COUNT == UART_BUFFER_LENGTH-1){
 80008f6:	4b0f      	ldr	r3, [pc, #60]	; (8000934 <USART2_IRQHandler+0x6c>)
 80008f8:	781b      	ldrb	r3, [r3, #0]
 80008fa:	b2db      	uxtb	r3, r3
 80008fc:	2bff      	cmp	r3, #255	; 0xff
 80008fe:	d107      	bne.n	8000910 <USART2_IRQHandler+0x48>
            UART_START_IDX++;
 8000900:	4b0d      	ldr	r3, [pc, #52]	; (8000938 <USART2_IRQHandler+0x70>)
 8000902:	781b      	ldrb	r3, [r3, #0]
 8000904:	b2db      	uxtb	r3, r3
 8000906:	3301      	adds	r3, #1
 8000908:	b2da      	uxtb	r2, r3
 800090a:	4b0b      	ldr	r3, [pc, #44]	; (8000938 <USART2_IRQHandler+0x70>)
 800090c:	701a      	strb	r2, [r3, #0]
        } else {
            UART_COUNT++;
        }
    }
}
 800090e:	e006      	b.n	800091e <USART2_IRQHandler+0x56>
            UART_COUNT++;
 8000910:	4b08      	ldr	r3, [pc, #32]	; (8000934 <USART2_IRQHandler+0x6c>)
 8000912:	781b      	ldrb	r3, [r3, #0]
 8000914:	b2db      	uxtb	r3, r3
 8000916:	3301      	adds	r3, #1
 8000918:	b2da      	uxtb	r2, r3
 800091a:	4b06      	ldr	r3, [pc, #24]	; (8000934 <USART2_IRQHandler+0x6c>)
 800091c:	701a      	strb	r2, [r3, #0]
}
 800091e:	bf00      	nop
 8000920:	bd80      	pop	{r7, pc}
 8000922:	bf00      	nop
 8000924:	00050105 	.word	0x00050105
 8000928:	40004400 	.word	0x40004400
 800092c:	200001ac 	.word	0x200001ac
 8000930:	200000ac 	.word	0x200000ac
 8000934:	200001ae 	.word	0x200001ae
 8000938:	200001ad 	.word	0x200001ad

0800093c <uart_init>:

uint8_t uart_get_count(){
    return UART_COUNT;
}

void uart_init(uint32_t baud) {
 800093c:	b580      	push	{r7, lr}
 800093e:	b094      	sub	sp, #80	; 0x50
 8000940:	af00      	add	r7, sp, #0
 8000942:	6078      	str	r0, [r7, #4]
    setbuf(stdout, NULL); // Set stdout to disable line buffering
 8000944:	4b86      	ldr	r3, [pc, #536]	; (8000b60 <uart_init+0x224>)
 8000946:	681b      	ldr	r3, [r3, #0]
 8000948:	689b      	ldr	r3, [r3, #8]
 800094a:	2100      	movs	r1, #0
 800094c:	4618      	mov	r0, r3
 800094e:	f000 fc2d 	bl	80011ac <setbuf>
    setbuf(stdin,  NULL); // Set stdin  to disable line buffering
 8000952:	4b83      	ldr	r3, [pc, #524]	; (8000b60 <uart_init+0x224>)
 8000954:	681b      	ldr	r3, [r3, #0]
 8000956:	685b      	ldr	r3, [r3, #4]
 8000958:	2100      	movs	r1, #0
 800095a:	4618      	mov	r0, r3
 800095c:	f000 fc26 	bl	80011ac <setbuf>

    // Enable Clocks
    RCC->AHBENR  |= RCC_AHBPeriph_GPIOA;    // Enable Clock for GPIO Bank A
 8000960:	4b80      	ldr	r3, [pc, #512]	; (8000b64 <uart_init+0x228>)
 8000962:	695b      	ldr	r3, [r3, #20]
 8000964:	4a7f      	ldr	r2, [pc, #508]	; (8000b64 <uart_init+0x228>)
 8000966:	f443 3300 	orr.w	r3, r3, #131072	; 0x20000
 800096a:	6153      	str	r3, [r2, #20]
    RCC->APB1ENR |= RCC_APB1Periph_USART2;  // Enable Clock for USART2
 800096c:	4b7d      	ldr	r3, [pc, #500]	; (8000b64 <uart_init+0x228>)
 800096e:	69db      	ldr	r3, [r3, #28]
 8000970:	4a7c      	ldr	r2, [pc, #496]	; (8000b64 <uart_init+0x228>)
 8000972:	f443 3300 	orr.w	r3, r3, #131072	; 0x20000
 8000976:	61d3      	str	r3, [r2, #28]

    // Connect pins to USART2
    GPIOA->AFR[2 >> 0x03] &= ~(0x0000000F << ((2 & 0x00000007) * 4)); // Clear alternate function for PA2
 8000978:	f04f 4390 	mov.w	r3, #1207959552	; 0x48000000
 800097c:	6a1b      	ldr	r3, [r3, #32]
 800097e:	f04f 4290 	mov.w	r2, #1207959552	; 0x48000000
 8000982:	f423 6370 	bic.w	r3, r3, #3840	; 0xf00
 8000986:	6213      	str	r3, [r2, #32]
    GPIOA->AFR[2 >> 0x03] |=  (0x00000007 << ((2 & 0x00000007) * 4)); // Set alternate 7 function for PA2
 8000988:	f04f 4390 	mov.w	r3, #1207959552	; 0x48000000
 800098c:	6a1b      	ldr	r3, [r3, #32]
 800098e:	f04f 4290 	mov.w	r2, #1207959552	; 0x48000000
 8000992:	f443 63e0 	orr.w	r3, r3, #1792	; 0x700
 8000996:	6213      	str	r3, [r2, #32]
    GPIOA->AFR[3 >> 0x03] &= ~(0x0000000F << ((3 & 0x00000007) * 4)); // Clear alternate function for PA3
 8000998:	f04f 4390 	mov.w	r3, #1207959552	; 0x48000000
 800099c:	6a1b      	ldr	r3, [r3, #32]
 800099e:	f04f 4290 	mov.w	r2, #1207959552	; 0x48000000
 80009a2:	f423 4370 	bic.w	r3, r3, #61440	; 0xf000
 80009a6:	6213      	str	r3, [r2, #32]
    GPIOA->AFR[3 >> 0x03] |=  (0x00000007 << ((3 & 0x00000007) * 4)); // Set alternate 7 function for PA3
 80009a8:	f04f 4390 	mov.w	r3, #1207959552	; 0x48000000
 80009ac:	6a1b      	ldr	r3, [r3, #32]
 80009ae:	f04f 4290 	mov.w	r2, #1207959552	; 0x48000000
 80009b2:	f443 43e0 	orr.w	r3, r3, #28672	; 0x7000
 80009b6:	6213      	str	r3, [r2, #32]

    // Configure pins PA2 and PA3 for 10 MHz alternate function
    GPIOA->OSPEEDR &= ~(0x00000003 << (2 * 2) | 0x00000003 << (3 * 2));    // Clear speed register
 80009b8:	f04f 4390 	mov.w	r3, #1207959552	; 0x48000000
 80009bc:	689b      	ldr	r3, [r3, #8]
 80009be:	f04f 4290 	mov.w	r2, #1207959552	; 0x48000000
 80009c2:	f023 03f0 	bic.w	r3, r3, #240	; 0xf0
 80009c6:	6093      	str	r3, [r2, #8]
    GPIOA->OSPEEDR |=  (0x00000001 << (2 * 2) | 0x00000001 << (3 * 2));    // set speed register (0x01 - 10 MHz, 0x02 - 2 MHz, 0x03 - 50 MHz)
 80009c8:	f04f 4390 	mov.w	r3, #1207959552	; 0x48000000
 80009cc:	689b      	ldr	r3, [r3, #8]
 80009ce:	f04f 4290 	mov.w	r2, #1207959552	; 0x48000000
 80009d2:	f043 0350 	orr.w	r3, r3, #80	; 0x50
 80009d6:	6093      	str	r3, [r2, #8]
    GPIOA->OTYPER  &= ~(0x0001     << (2)     | 0x0001     << (3));        // Clear output type register
 80009d8:	f04f 4390 	mov.w	r3, #1207959552	; 0x48000000
 80009dc:	889b      	ldrh	r3, [r3, #4]
 80009de:	b29b      	uxth	r3, r3
 80009e0:	f04f 4290 	mov.w	r2, #1207959552	; 0x48000000
 80009e4:	f023 030c 	bic.w	r3, r3, #12
 80009e8:	b29b      	uxth	r3, r3
 80009ea:	8093      	strh	r3, [r2, #4]
    GPIOA->OTYPER  |=  (0x0000     << (2)     | 0x0000     << (3));        // Set output type register (0x00 - Push pull, 0x01 - Open drain)
 80009ec:	f04f 4290 	mov.w	r2, #1207959552	; 0x48000000
 80009f0:	f04f 4390 	mov.w	r3, #1207959552	; 0x48000000
 80009f4:	8892      	ldrh	r2, [r2, #4]
 80009f6:	b292      	uxth	r2, r2
 80009f8:	809a      	strh	r2, [r3, #4]
    GPIOA->MODER   &= ~(0x00000003 << (2 * 2) | 0x00000003 << (3 * 2));    // Clear mode register
 80009fa:	f04f 4390 	mov.w	r3, #1207959552	; 0x48000000
 80009fe:	681b      	ldr	r3, [r3, #0]
 8000a00:	f04f 4290 	mov.w	r2, #1207959552	; 0x48000000
 8000a04:	f023 03f0 	bic.w	r3, r3, #240	; 0xf0
 8000a08:	6013      	str	r3, [r2, #0]
    GPIOA->MODER   |=  (0x00000002 << (2 * 2) | 0x00000002 << (3 * 2));    // Set mode register (0x00 - Input, 0x01 - Output, 0x02 - Alternate Function, 0x03 - Analog in/out)
 8000a0a:	f04f 4390 	mov.w	r3, #1207959552	; 0x48000000
 8000a0e:	681b      	ldr	r3, [r3, #0]
 8000a10:	f04f 4290 	mov.w	r2, #1207959552	; 0x48000000
 8000a14:	f043 03a0 	orr.w	r3, r3, #160	; 0xa0
 8000a18:	6013      	str	r3, [r2, #0]
    GPIOA->PUPDR   &= ~(0x00000003 << (2 * 2) | 0x00000003 << (3 * 2));    // Clear push/pull register
 8000a1a:	f04f 4390 	mov.w	r3, #1207959552	; 0x48000000
 8000a1e:	68db      	ldr	r3, [r3, #12]
 8000a20:	f04f 4290 	mov.w	r2, #1207959552	; 0x48000000
 8000a24:	f023 03f0 	bic.w	r3, r3, #240	; 0xf0
 8000a28:	60d3      	str	r3, [r2, #12]
    GPIOA->PUPDR   |=  (0x00000001 << (2 * 2) | 0x00000001 << (3 * 2));    // Set push/pull register (0x00 - No pull, 0x01 - Pull-up, 0x02 - Pull-down)
 8000a2a:	f04f 4390 	mov.w	r3, #1207959552	; 0x48000000
 8000a2e:	68db      	ldr	r3, [r3, #12]
 8000a30:	f04f 4290 	mov.w	r2, #1207959552	; 0x48000000
 8000a34:	f043 0350 	orr.w	r3, r3, #80	; 0x50
 8000a38:	60d3      	str	r3, [r2, #12]

    //Configure USART2
    USART2->CR1 &= ~0x00000001; // Disable USART2
 8000a3a:	4b4b      	ldr	r3, [pc, #300]	; (8000b68 <uart_init+0x22c>)
 8000a3c:	681b      	ldr	r3, [r3, #0]
 8000a3e:	4a4a      	ldr	r2, [pc, #296]	; (8000b68 <uart_init+0x22c>)
 8000a40:	f023 0301 	bic.w	r3, r3, #1
 8000a44:	6013      	str	r3, [r2, #0]
    USART2->CR2 &= ~0x00003000; // Clear CR2 Configuration
 8000a46:	4b48      	ldr	r3, [pc, #288]	; (8000b68 <uart_init+0x22c>)
 8000a48:	685b      	ldr	r3, [r3, #4]
 8000a4a:	4a47      	ldr	r2, [pc, #284]	; (8000b68 <uart_init+0x22c>)
 8000a4c:	f423 5340 	bic.w	r3, r3, #12288	; 0x3000
 8000a50:	6053      	str	r3, [r2, #4]
    USART2->CR2 |=  0x00000000; // Set 1 stop bits
 8000a52:	4b45      	ldr	r3, [pc, #276]	; (8000b68 <uart_init+0x22c>)
 8000a54:	4a44      	ldr	r2, [pc, #272]	; (8000b68 <uart_init+0x22c>)
 8000a56:	685b      	ldr	r3, [r3, #4]
 8000a58:	6053      	str	r3, [r2, #4]
    USART2->CR1 &= ~(0x00001000 | 0x00000400 | 0x00000200 | 0x00000008 | 0x00000004); // Clear CR1 Configuration
 8000a5a:	4b43      	ldr	r3, [pc, #268]	; (8000b68 <uart_init+0x22c>)
 8000a5c:	681b      	ldr	r3, [r3, #0]
 8000a5e:	4a42      	ldr	r2, [pc, #264]	; (8000b68 <uart_init+0x22c>)
 8000a60:	f423 53b0 	bic.w	r3, r3, #5632	; 0x1600
 8000a64:	f023 030c 	bic.w	r3, r3, #12
 8000a68:	6013      	str	r3, [r2, #0]
    USART2->CR1 |=  0x00000000; // Set word length to 8 bits
 8000a6a:	4b3f      	ldr	r3, [pc, #252]	; (8000b68 <uart_init+0x22c>)
 8000a6c:	4a3e      	ldr	r2, [pc, #248]	; (8000b68 <uart_init+0x22c>)
 8000a6e:	681b      	ldr	r3, [r3, #0]
 8000a70:	6013      	str	r3, [r2, #0]
    USART2->CR1 |=  0x00000000; // Set parity bits to none
 8000a72:	4b3d      	ldr	r3, [pc, #244]	; (8000b68 <uart_init+0x22c>)
 8000a74:	4a3c      	ldr	r2, [pc, #240]	; (8000b68 <uart_init+0x22c>)
 8000a76:	681b      	ldr	r3, [r3, #0]
 8000a78:	6013      	str	r3, [r2, #0]
    USART2->CR1 |=  0x00000004 | 0x00000008; // Set mode to RX and TX
 8000a7a:	4b3b      	ldr	r3, [pc, #236]	; (8000b68 <uart_init+0x22c>)
 8000a7c:	681b      	ldr	r3, [r3, #0]
 8000a7e:	4a3a      	ldr	r2, [pc, #232]	; (8000b68 <uart_init+0x22c>)
 8000a80:	f043 030c 	orr.w	r3, r3, #12
 8000a84:	6013      	str	r3, [r2, #0]
    USART2->CR3 &= ~(0x00000100 | 0x00000200); // Clear CR3 Configuration
 8000a86:	4b38      	ldr	r3, [pc, #224]	; (8000b68 <uart_init+0x22c>)
 8000a88:	689b      	ldr	r3, [r3, #8]
 8000a8a:	4a37      	ldr	r2, [pc, #220]	; (8000b68 <uart_init+0x22c>)
 8000a8c:	f423 7340 	bic.w	r3, r3, #768	; 0x300
 8000a90:	6093      	str	r3, [r2, #8]
    USART2->CR3 |=  0x00000000; // Set hardware flow control to none
 8000a92:	4b35      	ldr	r3, [pc, #212]	; (8000b68 <uart_init+0x22c>)
 8000a94:	4a34      	ldr	r2, [pc, #208]	; (8000b68 <uart_init+0x22c>)
 8000a96:	689b      	ldr	r3, [r3, #8]
 8000a98:	6093      	str	r3, [r2, #8]

    uint32_t divider = 0, apbclock = 0, tmpreg = 0;
 8000a9a:	2300      	movs	r3, #0
 8000a9c:	64fb      	str	r3, [r7, #76]	; 0x4c
 8000a9e:	2300      	movs	r3, #0
 8000aa0:	647b      	str	r3, [r7, #68]	; 0x44
 8000aa2:	2300      	movs	r3, #0
 8000aa4:	64bb      	str	r3, [r7, #72]	; 0x48
    RCC_ClocksTypeDef RCC_ClocksStatus;
    RCC_GetClocksFreq(&RCC_ClocksStatus); // Get USART2 Clock frequency
 8000aa6:	f107 0308 	add.w	r3, r7, #8
 8000aaa:	4618      	mov	r0, r3
 8000aac:	f7ff fbe0 	bl	8000270 <RCC_GetClocksFreq>
    apbclock = RCC_ClocksStatus.USART2CLK_Frequency;
 8000ab0:	6b7b      	ldr	r3, [r7, #52]	; 0x34
 8000ab2:	647b      	str	r3, [r7, #68]	; 0x44

    if ((USART2->CR1 & 0x00008000) != 0) {
 8000ab4:	4b2c      	ldr	r3, [pc, #176]	; (8000b68 <uart_init+0x22c>)
 8000ab6:	681b      	ldr	r3, [r3, #0]
 8000ab8:	f403 4300 	and.w	r3, r3, #32768	; 0x8000
 8000abc:	2b00      	cmp	r3, #0
 8000abe:	d010      	beq.n	8000ae2 <uart_init+0x1a6>
      // (divider * 10) computing in case Oversampling mode is 8 Samples
      divider = (2 * apbclock) / baud;
 8000ac0:	6c7b      	ldr	r3, [r7, #68]	; 0x44
 8000ac2:	005a      	lsls	r2, r3, #1
 8000ac4:	687b      	ldr	r3, [r7, #4]
 8000ac6:	fbb2 f3f3 	udiv	r3, r2, r3
 8000aca:	64fb      	str	r3, [r7, #76]	; 0x4c
      tmpreg  = (2 * apbclock) % baud;
 8000acc:	6c7b      	ldr	r3, [r7, #68]	; 0x44
 8000ace:	005b      	lsls	r3, r3, #1
 8000ad0:	687a      	ldr	r2, [r7, #4]
 8000ad2:	fbb3 f2f2 	udiv	r2, r3, r2
 8000ad6:	6879      	ldr	r1, [r7, #4]
 8000ad8:	fb01 f202 	mul.w	r2, r1, r2
 8000adc:	1a9b      	subs	r3, r3, r2
 8000ade:	64bb      	str	r3, [r7, #72]	; 0x48
 8000ae0:	e00d      	b.n	8000afe <uart_init+0x1c2>
    } else {
      // (divider * 10) computing in case Oversampling mode is 16 Samples
      divider = apbclock / baud;
 8000ae2:	6c7a      	ldr	r2, [r7, #68]	; 0x44
 8000ae4:	687b      	ldr	r3, [r7, #4]
 8000ae6:	fbb2 f3f3 	udiv	r3, r2, r3
 8000aea:	64fb      	str	r3, [r7, #76]	; 0x4c
      tmpreg  = apbclock % baud;
 8000aec:	6c7b      	ldr	r3, [r7, #68]	; 0x44
 8000aee:	687a      	ldr	r2, [r7, #4]
 8000af0:	fbb3 f2f2 	udiv	r2, r3, r2
 8000af4:	6879      	ldr	r1, [r7, #4]
 8000af6:	fb01 f202 	mul.w	r2, r1, r2
 8000afa:	1a9b      	subs	r3, r3, r2
 8000afc:	64bb      	str	r3, [r7, #72]	; 0x48
    }

    if (tmpreg >=  baud / 2) {
 8000afe:	687b      	ldr	r3, [r7, #4]
 8000b00:	085b      	lsrs	r3, r3, #1
 8000b02:	6cba      	ldr	r2, [r7, #72]	; 0x48
 8000b04:	429a      	cmp	r2, r3
 8000b06:	d302      	bcc.n	8000b0e <uart_init+0x1d2>
        divider++;
 8000b08:	6cfb      	ldr	r3, [r7, #76]	; 0x4c
 8000b0a:	3301      	adds	r3, #1
 8000b0c:	64fb      	str	r3, [r7, #76]	; 0x4c
    }

    if ((USART2->CR1 & 0x00008000) != 0) {
 8000b0e:	4b16      	ldr	r3, [pc, #88]	; (8000b68 <uart_init+0x22c>)
 8000b10:	681b      	ldr	r3, [r3, #0]
 8000b12:	f403 4300 	and.w	r3, r3, #32768	; 0x8000
 8000b16:	2b00      	cmp	r3, #0
 8000b18:	d00b      	beq.n	8000b32 <uart_init+0x1f6>
        // get the LSB of divider and shift it to the right by 1 bit
        tmpreg = (divider & (uint16_t)0x000F) >> 1;
 8000b1a:	6cfb      	ldr	r3, [r7, #76]	; 0x4c
 8000b1c:	085b      	lsrs	r3, r3, #1
 8000b1e:	f003 0307 	and.w	r3, r3, #7
 8000b22:	64bb      	str	r3, [r7, #72]	; 0x48
        // update the divider value
        divider = (divider & (uint16_t)0xFFF0) | tmpreg;
 8000b24:	6cfa      	ldr	r2, [r7, #76]	; 0x4c
 8000b26:	f64f 73f0 	movw	r3, #65520	; 0xfff0
 8000b2a:	4013      	ands	r3, r2
 8000b2c:	6cba      	ldr	r2, [r7, #72]	; 0x48
 8000b2e:	4313      	orrs	r3, r2
 8000b30:	64fb      	str	r3, [r7, #76]	; 0x4c
    }

    USART2->BRR = (uint16_t)divider; // Configure baud rate
 8000b32:	4b0d      	ldr	r3, [pc, #52]	; (8000b68 <uart_init+0x22c>)
 8000b34:	6cfa      	ldr	r2, [r7, #76]	; 0x4c
 8000b36:	b292      	uxth	r2, r2
 8000b38:	819a      	strh	r2, [r3, #12]
    USART2->CR1 |= 0x00000001; // Enable USART2
 8000b3a:	4b0b      	ldr	r3, [pc, #44]	; (8000b68 <uart_init+0x22c>)
 8000b3c:	681b      	ldr	r3, [r3, #0]
 8000b3e:	4a0a      	ldr	r2, [pc, #40]	; (8000b68 <uart_init+0x22c>)
 8000b40:	f043 0301 	orr.w	r3, r3, #1
 8000b44:	6013      	str	r3, [r2, #0]

    USART_ITConfig(USART2, USART_IT_RXNE, ENABLE);
 8000b46:	2201      	movs	r2, #1
 8000b48:	4908      	ldr	r1, [pc, #32]	; (8000b6c <uart_init+0x230>)
 8000b4a:	4807      	ldr	r0, [pc, #28]	; (8000b68 <uart_init+0x22c>)
 8000b4c:	f7ff fdb6 	bl	80006bc <USART_ITConfig>
    NVIC_EnableIRQ(USART2_IRQn);
 8000b50:	2026      	movs	r0, #38	; 0x26
 8000b52:	f7ff fe5f 	bl	8000814 <NVIC_EnableIRQ>
}
 8000b56:	bf00      	nop
 8000b58:	3750      	adds	r7, #80	; 0x50
 8000b5a:	46bd      	mov	sp, r7
 8000b5c:	bd80      	pop	{r7, pc}
 8000b5e:	bf00      	nop
 8000b60:	2000002c 	.word	0x2000002c
 8000b64:	40021000 	.word	0x40021000
 8000b68:	40004400 	.word	0x40004400
 8000b6c:	00050105 	.word	0x00050105

08000b70 <clrscr>:
void resetbgcolor() {
// gray on black text, no underline, no blink, no reverse
  printf("%c[m", ESC);
}

void clrscr() {
 8000b70:	b580      	push	{r7, lr}
 8000b72:	af00      	add	r7, sp, #0
	printf("%c[2J", ESC);
 8000b74:	211b      	movs	r1, #27
 8000b76:	4804      	ldr	r0, [pc, #16]	; (8000b88 <clrscr+0x18>)
 8000b78:	f000 faea 	bl	8001150 <iprintf>
	printf("%c[H", ESC);
 8000b7c:	211b      	movs	r1, #27
 8000b7e:	4803      	ldr	r0, [pc, #12]	; (8000b8c <clrscr+0x1c>)
 8000b80:	f000 fae6 	bl	8001150 <iprintf>
}
 8000b84:	bf00      	nop
 8000b86:	bd80      	pop	{r7, pc}
 8000b88:	08002280 	.word	0x08002280
 8000b8c:	08002288 	.word	0x08002288

08000b90 <gotoxy>:
void clreol() {
	printf("%c[K", ESC);
}


void gotoxy(uint8_t x, uint8_t y){
 8000b90:	b580      	push	{r7, lr}
 8000b92:	b082      	sub	sp, #8
 8000b94:	af00      	add	r7, sp, #0
 8000b96:	4603      	mov	r3, r0
 8000b98:	460a      	mov	r2, r1
 8000b9a:	71fb      	strb	r3, [r7, #7]
 8000b9c:	4613      	mov	r3, r2
 8000b9e:	71bb      	strb	r3, [r7, #6]
	printf("%c[%d;%dH", ESC, y, x);
 8000ba0:	79ba      	ldrb	r2, [r7, #6]
 8000ba2:	79fb      	ldrb	r3, [r7, #7]
 8000ba4:	211b      	movs	r1, #27
 8000ba6:	4803      	ldr	r0, [pc, #12]	; (8000bb4 <gotoxy+0x24>)
 8000ba8:	f000 fad2 	bl	8001150 <iprintf>
}
 8000bac:	bf00      	nop
 8000bae:	3708      	adds	r7, #8
 8000bb0:	46bd      	mov	sp, r7
 8000bb2:	bd80      	pop	{r7, pc}
 8000bb4:	08002298 	.word	0x08002298

08000bb8 <drawAsciiWindow>:
	printf("%c[27m", ESC);
	}
}


void drawAsciiWindow(Point *point1, Point *point2 , int style) {
 8000bb8:	b580      	push	{r7, lr}
 8000bba:	b08e      	sub	sp, #56	; 0x38
 8000bbc:	af00      	add	r7, sp, #0
 8000bbe:	60f8      	str	r0, [r7, #12]
 8000bc0:	60b9      	str	r1, [r7, #8]
 8000bc2:	607a      	str	r2, [r7, #4]
	//draw an ascii window in the terminal
	int x1 = point1->x;
 8000bc4:	68fb      	ldr	r3, [r7, #12]
 8000bc6:	681b      	ldr	r3, [r3, #0]
 8000bc8:	62bb      	str	r3, [r7, #40]	; 0x28
	int x2 = point2->x;
 8000bca:	68bb      	ldr	r3, [r7, #8]
 8000bcc:	681b      	ldr	r3, [r3, #0]
 8000bce:	627b      	str	r3, [r7, #36]	; 0x24
	int y1 = point1->y;
 8000bd0:	68fb      	ldr	r3, [r7, #12]
 8000bd2:	685b      	ldr	r3, [r3, #4]
 8000bd4:	623b      	str	r3, [r7, #32]
	int y2 = point2->y;
 8000bd6:	68bb      	ldr	r3, [r7, #8]
 8000bd8:	685b      	ldr	r3, [r3, #4]
 8000bda:	61fb      	str	r3, [r7, #28]
	int w = x2 - x1;
 8000bdc:	6a7a      	ldr	r2, [r7, #36]	; 0x24
 8000bde:	6abb      	ldr	r3, [r7, #40]	; 0x28
 8000be0:	1ad3      	subs	r3, r2, r3
 8000be2:	61bb      	str	r3, [r7, #24]
	int h = y2 - y1;
 8000be4:	69fa      	ldr	r2, [r7, #28]
 8000be6:	6a3b      	ldr	r3, [r7, #32]
 8000be8:	1ad3      	subs	r3, r2, r3
 8000bea:	617b      	str	r3, [r7, #20]

	//draw the top line
	for (int i = 0; i < w+1; i++) {
 8000bec:	2300      	movs	r3, #0
 8000bee:	637b      	str	r3, [r7, #52]	; 0x34
 8000bf0:	e020      	b.n	8000c34 <drawAsciiWindow+0x7c>
		gotoxy(x1 + i, y1);
 8000bf2:	6abb      	ldr	r3, [r7, #40]	; 0x28
 8000bf4:	b2da      	uxtb	r2, r3
 8000bf6:	6b7b      	ldr	r3, [r7, #52]	; 0x34
 8000bf8:	b2db      	uxtb	r3, r3
 8000bfa:	4413      	add	r3, r2
 8000bfc:	b2db      	uxtb	r3, r3
 8000bfe:	6a3a      	ldr	r2, [r7, #32]
 8000c00:	b2d2      	uxtb	r2, r2
 8000c02:	4611      	mov	r1, r2
 8000c04:	4618      	mov	r0, r3
 8000c06:	f7ff ffc3 	bl	8000b90 <gotoxy>
		if (i == 0) {
 8000c0a:	6b7b      	ldr	r3, [r7, #52]	; 0x34
 8000c0c:	2b00      	cmp	r3, #0
 8000c0e:	d103      	bne.n	8000c18 <drawAsciiWindow+0x60>
			printf("%c", 218); // topleft corner
 8000c10:	20da      	movs	r0, #218	; 0xda
 8000c12:	f000 fab5 	bl	8001180 <putchar>
 8000c16:	e00a      	b.n	8000c2e <drawAsciiWindow+0x76>
		} else if (i == w) {
 8000c18:	6b7a      	ldr	r2, [r7, #52]	; 0x34
 8000c1a:	69bb      	ldr	r3, [r7, #24]
 8000c1c:	429a      	cmp	r2, r3
 8000c1e:	d103      	bne.n	8000c28 <drawAsciiWindow+0x70>
			printf("%c", 191); // topright corner
 8000c20:	20bf      	movs	r0, #191	; 0xbf
 8000c22:	f000 faad 	bl	8001180 <putchar>
 8000c26:	e002      	b.n	8000c2e <drawAsciiWindow+0x76>
		} else {
			printf("%c", 196); // horizontal line
 8000c28:	20c4      	movs	r0, #196	; 0xc4
 8000c2a:	f000 faa9 	bl	8001180 <putchar>
	for (int i = 0; i < w+1; i++) {
 8000c2e:	6b7b      	ldr	r3, [r7, #52]	; 0x34
 8000c30:	3301      	adds	r3, #1
 8000c32:	637b      	str	r3, [r7, #52]	; 0x34
 8000c34:	69ba      	ldr	r2, [r7, #24]
 8000c36:	6b7b      	ldr	r3, [r7, #52]	; 0x34
 8000c38:	429a      	cmp	r2, r3
 8000c3a:	dada      	bge.n	8000bf2 <drawAsciiWindow+0x3a>
		}
	}

	//draw the sides

	for (int i = 1; i < h; i++) {
 8000c3c:	2301      	movs	r3, #1
 8000c3e:	633b      	str	r3, [r7, #48]	; 0x30
 8000c40:	e01e      	b.n	8000c80 <drawAsciiWindow+0xc8>
			gotoxy(x1, y1 + i);
 8000c42:	6abb      	ldr	r3, [r7, #40]	; 0x28
 8000c44:	b2d8      	uxtb	r0, r3
 8000c46:	6a3b      	ldr	r3, [r7, #32]
 8000c48:	b2da      	uxtb	r2, r3
 8000c4a:	6b3b      	ldr	r3, [r7, #48]	; 0x30
 8000c4c:	b2db      	uxtb	r3, r3
 8000c4e:	4413      	add	r3, r2
 8000c50:	b2db      	uxtb	r3, r3
 8000c52:	4619      	mov	r1, r3
 8000c54:	f7ff ff9c 	bl	8000b90 <gotoxy>
			printf("%c", 179);
 8000c58:	20b3      	movs	r0, #179	; 0xb3
 8000c5a:	f000 fa91 	bl	8001180 <putchar>

			gotoxy(x2, y1 + i);
 8000c5e:	6a7b      	ldr	r3, [r7, #36]	; 0x24
 8000c60:	b2d8      	uxtb	r0, r3
 8000c62:	6a3b      	ldr	r3, [r7, #32]
 8000c64:	b2da      	uxtb	r2, r3
 8000c66:	6b3b      	ldr	r3, [r7, #48]	; 0x30
 8000c68:	b2db      	uxtb	r3, r3
 8000c6a:	4413      	add	r3, r2
 8000c6c:	b2db      	uxtb	r3, r3
 8000c6e:	4619      	mov	r1, r3
 8000c70:	f7ff ff8e 	bl	8000b90 <gotoxy>
			printf("%c", 179);
 8000c74:	20b3      	movs	r0, #179	; 0xb3
 8000c76:	f000 fa83 	bl	8001180 <putchar>
	for (int i = 1; i < h; i++) {
 8000c7a:	6b3b      	ldr	r3, [r7, #48]	; 0x30
 8000c7c:	3301      	adds	r3, #1
 8000c7e:	633b      	str	r3, [r7, #48]	; 0x30
 8000c80:	6b3a      	ldr	r2, [r7, #48]	; 0x30
 8000c82:	697b      	ldr	r3, [r7, #20]
 8000c84:	429a      	cmp	r2, r3
 8000c86:	dbdc      	blt.n	8000c42 <drawAsciiWindow+0x8a>
			}

	//draw the bottom line
	for (int i = 0; i < w+1; i++) {
 8000c88:	2300      	movs	r3, #0
 8000c8a:	62fb      	str	r3, [r7, #44]	; 0x2c
 8000c8c:	e020      	b.n	8000cd0 <drawAsciiWindow+0x118>
				gotoxy(x1 + i, y2);
 8000c8e:	6abb      	ldr	r3, [r7, #40]	; 0x28
 8000c90:	b2da      	uxtb	r2, r3
 8000c92:	6afb      	ldr	r3, [r7, #44]	; 0x2c
 8000c94:	b2db      	uxtb	r3, r3
 8000c96:	4413      	add	r3, r2
 8000c98:	b2db      	uxtb	r3, r3
 8000c9a:	69fa      	ldr	r2, [r7, #28]
 8000c9c:	b2d2      	uxtb	r2, r2
 8000c9e:	4611      	mov	r1, r2
 8000ca0:	4618      	mov	r0, r3
 8000ca2:	f7ff ff75 	bl	8000b90 <gotoxy>
				if (i == w) {
 8000ca6:	6afa      	ldr	r2, [r7, #44]	; 0x2c
 8000ca8:	69bb      	ldr	r3, [r7, #24]
 8000caa:	429a      	cmp	r2, r3
 8000cac:	d103      	bne.n	8000cb6 <drawAsciiWindow+0xfe>
					printf("%c", 217); // bottomright corner
 8000cae:	20d9      	movs	r0, #217	; 0xd9
 8000cb0:	f000 fa66 	bl	8001180 <putchar>
 8000cb4:	e009      	b.n	8000cca <drawAsciiWindow+0x112>
				} else if (i == 0) {
 8000cb6:	6afb      	ldr	r3, [r7, #44]	; 0x2c
 8000cb8:	2b00      	cmp	r3, #0
 8000cba:	d103      	bne.n	8000cc4 <drawAsciiWindow+0x10c>
					printf("%c", 192); // bottomleft corner
 8000cbc:	20c0      	movs	r0, #192	; 0xc0
 8000cbe:	f000 fa5f 	bl	8001180 <putchar>
 8000cc2:	e002      	b.n	8000cca <drawAsciiWindow+0x112>
				} else {
					printf("%c", 196); // horizontal line
 8000cc4:	20c4      	movs	r0, #196	; 0xc4
 8000cc6:	f000 fa5b 	bl	8001180 <putchar>
	for (int i = 0; i < w+1; i++) {
 8000cca:	6afb      	ldr	r3, [r7, #44]	; 0x2c
 8000ccc:	3301      	adds	r3, #1
 8000cce:	62fb      	str	r3, [r7, #44]	; 0x2c
 8000cd0:	69ba      	ldr	r2, [r7, #24]
 8000cd2:	6afb      	ldr	r3, [r7, #44]	; 0x2c
 8000cd4:	429a      	cmp	r2, r3
 8000cd6:	dada      	bge.n	8000c8e <drawAsciiWindow+0xd6>
				}
			}


}
 8000cd8:	bf00      	nop
 8000cda:	bf00      	nop
 8000cdc:	3738      	adds	r7, #56	; 0x38
 8000cde:	46bd      	mov	sp, r7
 8000ce0:	bd80      	pop	{r7, pc}
	...

08000ce4 <drawGameDisplay>:
#include <stdio.h>
#include <string.h>



void drawGameDisplay() {
 8000ce4:	b580      	push	{r7, lr}
 8000ce6:	b086      	sub	sp, #24
 8000ce8:	af00      	add	r7, sp, #0
    Point p1 = {5, 5};
 8000cea:	4a0d      	ldr	r2, [pc, #52]	; (8000d20 <drawGameDisplay+0x3c>)
 8000cec:	f107 030c 	add.w	r3, r7, #12
 8000cf0:	e892 0003 	ldmia.w	r2, {r0, r1}
 8000cf4:	e883 0003 	stmia.w	r3, {r0, r1}
    Point p2 = {15, 10};
 8000cf8:	4a0a      	ldr	r2, [pc, #40]	; (8000d24 <drawGameDisplay+0x40>)
 8000cfa:	1d3b      	adds	r3, r7, #4
 8000cfc:	e892 0003 	ldmia.w	r2, {r0, r1}
 8000d00:	e883 0003 	stmia.w	r3, {r0, r1}
    int style = 1;
 8000d04:	2301      	movs	r3, #1
 8000d06:	617b      	str	r3, [r7, #20]

    drawAsciiWindow(&p1, &p2, style);
 8000d08:	1d39      	adds	r1, r7, #4
 8000d0a:	f107 030c 	add.w	r3, r7, #12
 8000d0e:	697a      	ldr	r2, [r7, #20]
 8000d10:	4618      	mov	r0, r3
 8000d12:	f7ff ff51 	bl	8000bb8 <drawAsciiWindow>
}
 8000d16:	bf00      	nop
 8000d18:	3718      	adds	r7, #24
 8000d1a:	46bd      	mov	sp, r7
 8000d1c:	bd80      	pop	{r7, pc}
 8000d1e:	bf00      	nop
 8000d20:	080022d4 	.word	0x080022d4
 8000d24:	080022dc 	.word	0x080022dc

08000d28 <hideCursor>:

void showCursor() {
        fputs("\033[?25h", stdout); // Show cursor
    }

void hideCursor() {
 8000d28:	b580      	push	{r7, lr}
 8000d2a:	af00      	add	r7, sp, #0
	 fputs("\033[?25l", stdout); // Hide cursor
 8000d2c:	4b04      	ldr	r3, [pc, #16]	; (8000d40 <hideCursor+0x18>)
 8000d2e:	681b      	ldr	r3, [r3, #0]
 8000d30:	689b      	ldr	r3, [r3, #8]
 8000d32:	2206      	movs	r2, #6
 8000d34:	2101      	movs	r1, #1
 8000d36:	4803      	ldr	r0, [pc, #12]	; (8000d44 <hideCursor+0x1c>)
 8000d38:	f000 f9cc 	bl	80010d4 <fwrite>
}
 8000d3c:	bf00      	nop
 8000d3e:	bd80      	pop	{r7, pc}
 8000d40:	2000002c 	.word	0x2000002c
 8000d44:	080022ec 	.word	0x080022ec

08000d48 <main>:

int main(void) {
 8000d48:	b580      	push	{r7, lr}
 8000d4a:	b082      	sub	sp, #8
 8000d4c:	af00      	add	r7, sp, #0

	//setup
	uart_init(460800);
 8000d4e:	f44f 20e1 	mov.w	r0, #460800	; 0x70800
 8000d52:	f7ff fdf3 	bl	800093c <uart_init>
	hideCursor();
 8000d56:	f7ff ffe7 	bl	8000d28 <hideCursor>

	//variables
	int c = 0;
 8000d5a:	2300      	movs	r3, #0
 8000d5c:	607b      	str	r3, [r7, #4]

	//main loop
	while (1) {


		drawGameDisplay();
 8000d5e:	f7ff ffc1 	bl	8000ce4 <drawGameDisplay>

		//clear the screen
		if(c%1000 == 0) {
 8000d62:	687a      	ldr	r2, [r7, #4]
 8000d64:	4b09      	ldr	r3, [pc, #36]	; (8000d8c <main+0x44>)
 8000d66:	fb83 1302 	smull	r1, r3, r3, r2
 8000d6a:	1199      	asrs	r1, r3, #6
 8000d6c:	17d3      	asrs	r3, r2, #31
 8000d6e:	1acb      	subs	r3, r1, r3
 8000d70:	f44f 717a 	mov.w	r1, #1000	; 0x3e8
 8000d74:	fb01 f303 	mul.w	r3, r1, r3
 8000d78:	1ad3      	subs	r3, r2, r3
 8000d7a:	2b00      	cmp	r3, #0
 8000d7c:	d101      	bne.n	8000d82 <main+0x3a>
			clrscr();
 8000d7e:	f7ff fef7 	bl	8000b70 <clrscr>
		}

		if (c == 10000000000) {
			c = 0;
		} else {
			c++;
 8000d82:	687b      	ldr	r3, [r7, #4]
 8000d84:	3301      	adds	r3, #1
 8000d86:	607b      	str	r3, [r7, #4]
		drawGameDisplay();
 8000d88:	e7e9      	b.n	8000d5e <main+0x16>
 8000d8a:	bf00      	nop
 8000d8c:	10624dd3 	.word	0x10624dd3

08000d90 <_read>:
	_kill(status, -1);
	while (1) {}		/* Make sure we hang here */
}

__attribute__((weak)) int _read(int file, char *ptr, int len)
{
 8000d90:	b580      	push	{r7, lr}
 8000d92:	b086      	sub	sp, #24
 8000d94:	af00      	add	r7, sp, #0
 8000d96:	60f8      	str	r0, [r7, #12]
 8000d98:	60b9      	str	r1, [r7, #8]
 8000d9a:	607a      	str	r2, [r7, #4]
	int DataIdx;

	for (DataIdx = 0; DataIdx < len; DataIdx++)
 8000d9c:	2300      	movs	r3, #0
 8000d9e:	617b      	str	r3, [r7, #20]
 8000da0:	e00a      	b.n	8000db8 <_read+0x28>
	{
		*ptr++ = __io_getchar();
 8000da2:	f3af 8000 	nop.w
 8000da6:	4601      	mov	r1, r0
 8000da8:	68bb      	ldr	r3, [r7, #8]
 8000daa:	1c5a      	adds	r2, r3, #1
 8000dac:	60ba      	str	r2, [r7, #8]
 8000dae:	b2ca      	uxtb	r2, r1
 8000db0:	701a      	strb	r2, [r3, #0]
	for (DataIdx = 0; DataIdx < len; DataIdx++)
 8000db2:	697b      	ldr	r3, [r7, #20]
 8000db4:	3301      	adds	r3, #1
 8000db6:	617b      	str	r3, [r7, #20]
 8000db8:	697a      	ldr	r2, [r7, #20]
 8000dba:	687b      	ldr	r3, [r7, #4]
 8000dbc:	429a      	cmp	r2, r3
 8000dbe:	dbf0      	blt.n	8000da2 <_read+0x12>
	}

return len;
 8000dc0:	687b      	ldr	r3, [r7, #4]
}
 8000dc2:	4618      	mov	r0, r3
 8000dc4:	3718      	adds	r7, #24
 8000dc6:	46bd      	mov	sp, r7
 8000dc8:	bd80      	pop	{r7, pc}

08000dca <_close>:
	}
	return len;
}

int _close(int file)
{
 8000dca:	b480      	push	{r7}
 8000dcc:	b083      	sub	sp, #12
 8000dce:	af00      	add	r7, sp, #0
 8000dd0:	6078      	str	r0, [r7, #4]
	return -1;
 8000dd2:	f04f 33ff 	mov.w	r3, #4294967295	; 0xffffffff
}
 8000dd6:	4618      	mov	r0, r3
 8000dd8:	370c      	adds	r7, #12
 8000dda:	46bd      	mov	sp, r7
 8000ddc:	f85d 7b04 	ldr.w	r7, [sp], #4
 8000de0:	4770      	bx	lr

08000de2 <_fstat>:


int _fstat(int file, struct stat *st)
{
 8000de2:	b480      	push	{r7}
 8000de4:	b083      	sub	sp, #12
 8000de6:	af00      	add	r7, sp, #0
 8000de8:	6078      	str	r0, [r7, #4]
 8000dea:	6039      	str	r1, [r7, #0]
	st->st_mode = S_IFCHR;
 8000dec:	683b      	ldr	r3, [r7, #0]
 8000dee:	f44f 5200 	mov.w	r2, #8192	; 0x2000
 8000df2:	605a      	str	r2, [r3, #4]
	return 0;
 8000df4:	2300      	movs	r3, #0
}
 8000df6:	4618      	mov	r0, r3
 8000df8:	370c      	adds	r7, #12
 8000dfa:	46bd      	mov	sp, r7
 8000dfc:	f85d 7b04 	ldr.w	r7, [sp], #4
 8000e00:	4770      	bx	lr

08000e02 <_isatty>:

int _isatty(int file)
{
 8000e02:	b480      	push	{r7}
 8000e04:	b083      	sub	sp, #12
 8000e06:	af00      	add	r7, sp, #0
 8000e08:	6078      	str	r0, [r7, #4]
	return 1;
 8000e0a:	2301      	movs	r3, #1
}
 8000e0c:	4618      	mov	r0, r3
 8000e0e:	370c      	adds	r7, #12
 8000e10:	46bd      	mov	sp, r7
 8000e12:	f85d 7b04 	ldr.w	r7, [sp], #4
 8000e16:	4770      	bx	lr

08000e18 <_lseek>:

int _lseek(int file, int ptr, int dir)
{
 8000e18:	b480      	push	{r7}
 8000e1a:	b085      	sub	sp, #20
 8000e1c:	af00      	add	r7, sp, #0
 8000e1e:	60f8      	str	r0, [r7, #12]
 8000e20:	60b9      	str	r1, [r7, #8]
 8000e22:	607a      	str	r2, [r7, #4]
	return 0;
 8000e24:	2300      	movs	r3, #0
}
 8000e26:	4618      	mov	r0, r3
 8000e28:	3714      	adds	r7, #20
 8000e2a:	46bd      	mov	sp, r7
 8000e2c:	f85d 7b04 	ldr.w	r7, [sp], #4
 8000e30:	4770      	bx	lr
	...

08000e34 <_sbrk>:
/**
 _sbrk
 Increase program data space. Malloc and related functions depend on this
**/
caddr_t _sbrk(int incr)
{
 8000e34:	b580      	push	{r7, lr}
 8000e36:	b084      	sub	sp, #16
 8000e38:	af00      	add	r7, sp, #0
 8000e3a:	6078      	str	r0, [r7, #4]
	extern char end asm("end");
	static char *heap_end;
	char *prev_heap_end;

	if (heap_end == 0)
 8000e3c:	4b11      	ldr	r3, [pc, #68]	; (8000e84 <_sbrk+0x50>)
 8000e3e:	681b      	ldr	r3, [r3, #0]
 8000e40:	2b00      	cmp	r3, #0
 8000e42:	d102      	bne.n	8000e4a <_sbrk+0x16>
		heap_end = &end;
 8000e44:	4b0f      	ldr	r3, [pc, #60]	; (8000e84 <_sbrk+0x50>)
 8000e46:	4a10      	ldr	r2, [pc, #64]	; (8000e88 <_sbrk+0x54>)
 8000e48:	601a      	str	r2, [r3, #0]

	prev_heap_end = heap_end;
 8000e4a:	4b0e      	ldr	r3, [pc, #56]	; (8000e84 <_sbrk+0x50>)
 8000e4c:	681b      	ldr	r3, [r3, #0]
 8000e4e:	60fb      	str	r3, [r7, #12]
	if (heap_end + incr > stack_ptr)
 8000e50:	4b0c      	ldr	r3, [pc, #48]	; (8000e84 <_sbrk+0x50>)
 8000e52:	681a      	ldr	r2, [r3, #0]
 8000e54:	687b      	ldr	r3, [r7, #4]
 8000e56:	4413      	add	r3, r2
 8000e58:	466a      	mov	r2, sp
 8000e5a:	4293      	cmp	r3, r2
 8000e5c:	d907      	bls.n	8000e6e <_sbrk+0x3a>
	{
		errno = ENOMEM;
 8000e5e:	f000 f8d3 	bl	8001008 <__errno>
 8000e62:	4603      	mov	r3, r0
 8000e64:	220c      	movs	r2, #12
 8000e66:	601a      	str	r2, [r3, #0]
		return (caddr_t) -1;
 8000e68:	f04f 33ff 	mov.w	r3, #4294967295	; 0xffffffff
 8000e6c:	e006      	b.n	8000e7c <_sbrk+0x48>
	}

	heap_end += incr;
 8000e6e:	4b05      	ldr	r3, [pc, #20]	; (8000e84 <_sbrk+0x50>)
 8000e70:	681a      	ldr	r2, [r3, #0]
 8000e72:	687b      	ldr	r3, [r7, #4]
 8000e74:	4413      	add	r3, r2
 8000e76:	4a03      	ldr	r2, [pc, #12]	; (8000e84 <_sbrk+0x50>)
 8000e78:	6013      	str	r3, [r2, #0]

	return (caddr_t) prev_heap_end;
 8000e7a:	68fb      	ldr	r3, [r7, #12]
}
 8000e7c:	4618      	mov	r0, r3
 8000e7e:	3710      	adds	r7, #16
 8000e80:	46bd      	mov	sp, r7
 8000e82:	bd80      	pop	{r7, pc}
 8000e84:	200001b0 	.word	0x200001b0
 8000e88:	200001d0 	.word	0x200001d0

08000e8c <SystemInit>:
  *         SystemFrequency variable.
  * @param  None
  * @retval None
  */
void SystemInit(void)
{
 8000e8c:	b580      	push	{r7, lr}
 8000e8e:	af00      	add	r7, sp, #0
  /* FPU settings ------------------------------------------------------------*/
  #if (__FPU_PRESENT == 1) && (__FPU_USED == 1)
    SCB->CPACR |= ((3UL << 10*2)|(3UL << 11*2));  /* set CP10 and CP11 Full Access */
 8000e90:	4b1f      	ldr	r3, [pc, #124]	; (8000f10 <SystemInit+0x84>)
 8000e92:	f8d3 3088 	ldr.w	r3, [r3, #136]	; 0x88
 8000e96:	4a1e      	ldr	r2, [pc, #120]	; (8000f10 <SystemInit+0x84>)
 8000e98:	f443 0370 	orr.w	r3, r3, #15728640	; 0xf00000
 8000e9c:	f8c2 3088 	str.w	r3, [r2, #136]	; 0x88
  #endif

  /* Reset the RCC clock configuration to the default reset state ------------*/
  /* Set HSION bit */
  RCC->CR |= (uint32_t)0x00000001;
 8000ea0:	4b1c      	ldr	r3, [pc, #112]	; (8000f14 <SystemInit+0x88>)
 8000ea2:	681b      	ldr	r3, [r3, #0]
 8000ea4:	4a1b      	ldr	r2, [pc, #108]	; (8000f14 <SystemInit+0x88>)
 8000ea6:	f043 0301 	orr.w	r3, r3, #1
 8000eaa:	6013      	str	r3, [r2, #0]

  /* Reset CFGR register */
  RCC->CFGR &= 0xF87FC00C;
 8000eac:	4b19      	ldr	r3, [pc, #100]	; (8000f14 <SystemInit+0x88>)
 8000eae:	685a      	ldr	r2, [r3, #4]
 8000eb0:	4918      	ldr	r1, [pc, #96]	; (8000f14 <SystemInit+0x88>)
 8000eb2:	4b19      	ldr	r3, [pc, #100]	; (8000f18 <SystemInit+0x8c>)
 8000eb4:	4013      	ands	r3, r2
 8000eb6:	604b      	str	r3, [r1, #4]

  /* Reset HSEON, CSSON and PLLON bits */
  RCC->CR &= (uint32_t)0xFEF6FFFF;
 8000eb8:	4b16      	ldr	r3, [pc, #88]	; (8000f14 <SystemInit+0x88>)
 8000eba:	681b      	ldr	r3, [r3, #0]
 8000ebc:	4a15      	ldr	r2, [pc, #84]	; (8000f14 <SystemInit+0x88>)
 8000ebe:	f023 7384 	bic.w	r3, r3, #17301504	; 0x1080000
 8000ec2:	f423 3380 	bic.w	r3, r3, #65536	; 0x10000
 8000ec6:	6013      	str	r3, [r2, #0]

  /* Reset HSEBYP bit */
  RCC->CR &= (uint32_t)0xFFFBFFFF;
 8000ec8:	4b12      	ldr	r3, [pc, #72]	; (8000f14 <SystemInit+0x88>)
 8000eca:	681b      	ldr	r3, [r3, #0]
 8000ecc:	4a11      	ldr	r2, [pc, #68]	; (8000f14 <SystemInit+0x88>)
 8000ece:	f423 2380 	bic.w	r3, r3, #262144	; 0x40000
 8000ed2:	6013      	str	r3, [r2, #0]

  /* Reset PLLSRC, PLLXTPRE, PLLMUL and USBPRE bits */
  RCC->CFGR &= (uint32_t)0xFF80FFFF;
 8000ed4:	4b0f      	ldr	r3, [pc, #60]	; (8000f14 <SystemInit+0x88>)
 8000ed6:	685b      	ldr	r3, [r3, #4]
 8000ed8:	4a0e      	ldr	r2, [pc, #56]	; (8000f14 <SystemInit+0x88>)
 8000eda:	f423 03fe 	bic.w	r3, r3, #8323072	; 0x7f0000
 8000ede:	6053      	str	r3, [r2, #4]

  /* Reset PREDIV1[3:0] bits */
  RCC->CFGR2 &= (uint32_t)0xFFFFFFF0;
 8000ee0:	4b0c      	ldr	r3, [pc, #48]	; (8000f14 <SystemInit+0x88>)
 8000ee2:	6adb      	ldr	r3, [r3, #44]	; 0x2c
 8000ee4:	4a0b      	ldr	r2, [pc, #44]	; (8000f14 <SystemInit+0x88>)
 8000ee6:	f023 030f 	bic.w	r3, r3, #15
 8000eea:	62d3      	str	r3, [r2, #44]	; 0x2c

  /* Reset USARTSW[1:0], I2CSW and TIMs bits */
  RCC->CFGR3 &= (uint32_t)0xFF00FCCC;
 8000eec:	4b09      	ldr	r3, [pc, #36]	; (8000f14 <SystemInit+0x88>)
 8000eee:	6b1a      	ldr	r2, [r3, #48]	; 0x30
 8000ef0:	4908      	ldr	r1, [pc, #32]	; (8000f14 <SystemInit+0x88>)
 8000ef2:	4b0a      	ldr	r3, [pc, #40]	; (8000f1c <SystemInit+0x90>)
 8000ef4:	4013      	ands	r3, r2
 8000ef6:	630b      	str	r3, [r1, #48]	; 0x30
  
  /* Disable all interrupts */
  RCC->CIR = 0x00000000;
 8000ef8:	4b06      	ldr	r3, [pc, #24]	; (8000f14 <SystemInit+0x88>)
 8000efa:	2200      	movs	r2, #0
 8000efc:	609a      	str	r2, [r3, #8]

  /* Configure the System clock source, PLL Multiplier and Divider factors, 
     AHB/APBx prescalers and Flash settings ----------------------------------*/
  SetSysClock();
 8000efe:	f000 f80f 	bl	8000f20 <SetSysClock>
  
#ifdef VECT_TAB_SRAM
  SCB->VTOR = SRAM_BASE | VECT_TAB_OFFSET; /* Vector Table Relocation in Internal SRAM. */
#else
  SCB->VTOR = FLASH_BASE | VECT_TAB_OFFSET; /* Vector Table Relocation in Internal FLASH. */
 8000f02:	4b03      	ldr	r3, [pc, #12]	; (8000f10 <SystemInit+0x84>)
 8000f04:	f04f 6200 	mov.w	r2, #134217728	; 0x8000000
 8000f08:	609a      	str	r2, [r3, #8]
#endif  
}
 8000f0a:	bf00      	nop
 8000f0c:	bd80      	pop	{r7, pc}
 8000f0e:	bf00      	nop
 8000f10:	e000ed00 	.word	0xe000ed00
 8000f14:	40021000 	.word	0x40021000
 8000f18:	f87fc00c 	.word	0xf87fc00c
 8000f1c:	ff00fccc 	.word	0xff00fccc

08000f20 <SetSysClock>:
  *         is reset to the default reset state (done in SystemInit() function).             
  * @param  None
  * @retval None
  */
static void SetSysClock(void)
{
 8000f20:	b480      	push	{r7}
 8000f22:	af00      	add	r7, sp, #0
  /* At this stage the HSI is already enabled and used as System clock source */
  
  /* SYSCLK, HCLK, PCLK configuration ----------------------------------------*/

  /* Enable Prefetch Buffer and set Flash Latency */
  FLASH->ACR = FLASH_ACR_PRFTBE | (uint32_t)FLASH_ACR_LATENCY_1;
 8000f24:	4b21      	ldr	r3, [pc, #132]	; (8000fac <SetSysClock+0x8c>)
 8000f26:	2212      	movs	r2, #18
 8000f28:	601a      	str	r2, [r3, #0]

  /* HCLK = SYSCLK / 1 */
  RCC->CFGR |= (uint32_t)RCC_CFGR_HPRE_DIV1;
 8000f2a:	4b21      	ldr	r3, [pc, #132]	; (8000fb0 <SetSysClock+0x90>)
 8000f2c:	4a20      	ldr	r2, [pc, #128]	; (8000fb0 <SetSysClock+0x90>)
 8000f2e:	685b      	ldr	r3, [r3, #4]
 8000f30:	6053      	str	r3, [r2, #4]

  /* PCLK2 = HCLK / 1 */
  RCC->CFGR |= (uint32_t)RCC_CFGR_PPRE2_DIV1;
 8000f32:	4b1f      	ldr	r3, [pc, #124]	; (8000fb0 <SetSysClock+0x90>)
 8000f34:	4a1e      	ldr	r2, [pc, #120]	; (8000fb0 <SetSysClock+0x90>)
 8000f36:	685b      	ldr	r3, [r3, #4]
 8000f38:	6053      	str	r3, [r2, #4]

  /* PCLK1 = HCLK / 2 */
  RCC->CFGR |= (uint32_t)RCC_CFGR_PPRE1_DIV2;
 8000f3a:	4b1d      	ldr	r3, [pc, #116]	; (8000fb0 <SetSysClock+0x90>)
 8000f3c:	685b      	ldr	r3, [r3, #4]
 8000f3e:	4a1c      	ldr	r2, [pc, #112]	; (8000fb0 <SetSysClock+0x90>)
 8000f40:	f443 6380 	orr.w	r3, r3, #1024	; 0x400
 8000f44:	6053      	str	r3, [r2, #4]

  /*  PLL configuration */
  RCC->CFGR &= (uint32_t)((uint32_t)~(RCC_CFGR_PLLSRC | RCC_CFGR_PLLXTPRE | RCC_CFGR_PLLMULL));
 8000f46:	4b1a      	ldr	r3, [pc, #104]	; (8000fb0 <SetSysClock+0x90>)
 8000f48:	685b      	ldr	r3, [r3, #4]
 8000f4a:	4a19      	ldr	r2, [pc, #100]	; (8000fb0 <SetSysClock+0x90>)
 8000f4c:	f423 137c 	bic.w	r3, r3, #4128768	; 0x3f0000
 8000f50:	6053      	str	r3, [r2, #4]
  RCC->CFGR |= (uint32_t)(RCC_CFGR_PLLSRC_HSI_Div2 | RCC_CFGR_PLLXTPRE_PREDIV1 | RCC_CFGR_PLLMULL16);
 8000f52:	4b17      	ldr	r3, [pc, #92]	; (8000fb0 <SetSysClock+0x90>)
 8000f54:	685b      	ldr	r3, [r3, #4]
 8000f56:	4a16      	ldr	r2, [pc, #88]	; (8000fb0 <SetSysClock+0x90>)
 8000f58:	f443 1360 	orr.w	r3, r3, #3670016	; 0x380000
 8000f5c:	6053      	str	r3, [r2, #4]

  /* Enable PLL */
  RCC->CR |= RCC_CR_PLLON;
 8000f5e:	4b14      	ldr	r3, [pc, #80]	; (8000fb0 <SetSysClock+0x90>)
 8000f60:	681b      	ldr	r3, [r3, #0]
 8000f62:	4a13      	ldr	r2, [pc, #76]	; (8000fb0 <SetSysClock+0x90>)
 8000f64:	f043 7380 	orr.w	r3, r3, #16777216	; 0x1000000
 8000f68:	6013      	str	r3, [r2, #0]

  /* Wait till PLL is ready */
  while((RCC->CR & RCC_CR_PLLRDY) == 0)
 8000f6a:	bf00      	nop
 8000f6c:	4b10      	ldr	r3, [pc, #64]	; (8000fb0 <SetSysClock+0x90>)
 8000f6e:	681b      	ldr	r3, [r3, #0]
 8000f70:	f003 7300 	and.w	r3, r3, #33554432	; 0x2000000
 8000f74:	2b00      	cmp	r3, #0
 8000f76:	d0f9      	beq.n	8000f6c <SetSysClock+0x4c>
  {
  }

  /* Select PLL as system clock source */
  RCC->CFGR &= (uint32_t)((uint32_t)~(RCC_CFGR_SW));
 8000f78:	4b0d      	ldr	r3, [pc, #52]	; (8000fb0 <SetSysClock+0x90>)
 8000f7a:	685b      	ldr	r3, [r3, #4]
 8000f7c:	4a0c      	ldr	r2, [pc, #48]	; (8000fb0 <SetSysClock+0x90>)
 8000f7e:	f023 0303 	bic.w	r3, r3, #3
 8000f82:	6053      	str	r3, [r2, #4]
  RCC->CFGR |= (uint32_t)RCC_CFGR_SW_PLL;
 8000f84:	4b0a      	ldr	r3, [pc, #40]	; (8000fb0 <SetSysClock+0x90>)
 8000f86:	685b      	ldr	r3, [r3, #4]
 8000f88:	4a09      	ldr	r2, [pc, #36]	; (8000fb0 <SetSysClock+0x90>)
 8000f8a:	f043 0302 	orr.w	r3, r3, #2
 8000f8e:	6053      	str	r3, [r2, #4]

  /* Wait till PLL is used as system clock source */
  while ((RCC->CFGR & (uint32_t)RCC_CFGR_SWS) != (uint32_t)RCC_CFGR_SWS_PLL)
 8000f90:	bf00      	nop
 8000f92:	4b07      	ldr	r3, [pc, #28]	; (8000fb0 <SetSysClock+0x90>)
 8000f94:	685b      	ldr	r3, [r3, #4]
 8000f96:	f003 030c 	and.w	r3, r3, #12
 8000f9a:	2b08      	cmp	r3, #8
 8000f9c:	d1f9      	bne.n	8000f92 <SetSysClock+0x72>
  {
  }
}
 8000f9e:	bf00      	nop
 8000fa0:	bf00      	nop
 8000fa2:	46bd      	mov	sp, r7
 8000fa4:	f85d 7b04 	ldr.w	r7, [sp], #4
 8000fa8:	4770      	bx	lr
 8000faa:	bf00      	nop
 8000fac:	40022000 	.word	0x40022000
 8000fb0:	40021000 	.word	0x40021000

08000fb4 <Reset_Handler>:

  .section .text.Reset_Handler
  .weak Reset_Handler
  .type Reset_Handler, %function
Reset_Handler:
  ldr   r0, =_estack
 8000fb4:	480d      	ldr	r0, [pc, #52]	; (8000fec <LoopForever+0x2>)
  mov   sp, r0          /* set stack pointer */
 8000fb6:	4685      	mov	sp, r0

/* Copy the data segment initializers from flash to SRAM */
  ldr r0, =_sdata
 8000fb8:	480d      	ldr	r0, [pc, #52]	; (8000ff0 <LoopForever+0x6>)
  ldr r1, =_edata
 8000fba:	490e      	ldr	r1, [pc, #56]	; (8000ff4 <LoopForever+0xa>)
  ldr r2, =_sidata
 8000fbc:	4a0e      	ldr	r2, [pc, #56]	; (8000ff8 <LoopForever+0xe>)
  movs r3, #0
 8000fbe:	2300      	movs	r3, #0
  b LoopCopyDataInit
 8000fc0:	e002      	b.n	8000fc8 <LoopCopyDataInit>

08000fc2 <CopyDataInit>:

CopyDataInit:
  ldr r4, [r2, r3]
 8000fc2:	58d4      	ldr	r4, [r2, r3]
  str r4, [r0, r3]
 8000fc4:	50c4      	str	r4, [r0, r3]
  adds r3, r3, #4
 8000fc6:	3304      	adds	r3, #4

08000fc8 <LoopCopyDataInit>:

LoopCopyDataInit:
  adds r4, r0, r3
 8000fc8:	18c4      	adds	r4, r0, r3
  cmp r4, r1
 8000fca:	428c      	cmp	r4, r1
  bcc CopyDataInit
 8000fcc:	d3f9      	bcc.n	8000fc2 <CopyDataInit>

/* Zero fill the bss segment. */
  ldr r2, =_sbss
 8000fce:	4a0b      	ldr	r2, [pc, #44]	; (8000ffc <LoopForever+0x12>)
  ldr r4, =_ebss
 8000fd0:	4c0b      	ldr	r4, [pc, #44]	; (8001000 <LoopForever+0x16>)
  movs r3, #0
 8000fd2:	2300      	movs	r3, #0
  b LoopFillZerobss
 8000fd4:	e001      	b.n	8000fda <LoopFillZerobss>

08000fd6 <FillZerobss>:

FillZerobss:
  str  r3, [r2]
 8000fd6:	6013      	str	r3, [r2, #0]
  adds r2, r2, #4
 8000fd8:	3204      	adds	r2, #4

08000fda <LoopFillZerobss>:

LoopFillZerobss:
  cmp r2, r4
 8000fda:	42a2      	cmp	r2, r4
  bcc FillZerobss
 8000fdc:	d3fb      	bcc.n	8000fd6 <FillZerobss>

/* Call the clock system intitialization function.*/
  bl  SystemInit
 8000fde:	f7ff ff55 	bl	8000e8c <SystemInit>
/* Call static constructors */
  bl __libc_init_array
 8000fe2:	f000 f885 	bl	80010f0 <__libc_init_array>
/* Call the application's entry point.*/
  bl main
 8000fe6:	f7ff feaf 	bl	8000d48 <main>

08000fea <LoopForever>:

LoopForever:
    b LoopForever
 8000fea:	e7fe      	b.n	8000fea <LoopForever>
  ldr   r0, =_estack
 8000fec:	20004000 	.word	0x20004000
  ldr r0, =_sdata
 8000ff0:	20000000 	.word	0x20000000
  ldr r1, =_edata
 8000ff4:	20000090 	.word	0x20000090
  ldr r2, =_sidata
 8000ff8:	08002394 	.word	0x08002394
  ldr r2, =_sbss
 8000ffc:	20000090 	.word	0x20000090
  ldr r4, =_ebss
 8001000:	200001cc 	.word	0x200001cc

08001004 <ADC1_2_IRQHandler>:
 * @retval : None
*/
  .section .text.Default_Handler,"ax",%progbits
Default_Handler:
Infinite_Loop:
  b Infinite_Loop
 8001004:	e7fe      	b.n	8001004 <ADC1_2_IRQHandler>
	...

08001008 <__errno>:
 8001008:	4b01      	ldr	r3, [pc, #4]	; (8001010 <__errno+0x8>)
 800100a:	6818      	ldr	r0, [r3, #0]
 800100c:	4770      	bx	lr
 800100e:	bf00      	nop
 8001010:	2000002c 	.word	0x2000002c

08001014 <_fwrite_r>:
 8001014:	e92d 43f8 	stmdb	sp!, {r3, r4, r5, r6, r7, r8, r9, lr}
 8001018:	9c08      	ldr	r4, [sp, #32]
 800101a:	4689      	mov	r9, r1
 800101c:	4617      	mov	r7, r2
 800101e:	fb02 f803 	mul.w	r8, r2, r3
 8001022:	4605      	mov	r5, r0
 8001024:	b118      	cbz	r0, 800102e <_fwrite_r+0x1a>
 8001026:	6983      	ldr	r3, [r0, #24]
 8001028:	b90b      	cbnz	r3, 800102e <_fwrite_r+0x1a>
 800102a:	f000 fb67 	bl	80016fc <__sinit>
 800102e:	4b26      	ldr	r3, [pc, #152]	; (80010c8 <_fwrite_r+0xb4>)
 8001030:	429c      	cmp	r4, r3
 8001032:	d123      	bne.n	800107c <_fwrite_r+0x68>
 8001034:	686c      	ldr	r4, [r5, #4]
 8001036:	6e63      	ldr	r3, [r4, #100]	; 0x64
 8001038:	07de      	lsls	r6, r3, #31
 800103a:	d405      	bmi.n	8001048 <_fwrite_r+0x34>
 800103c:	89a3      	ldrh	r3, [r4, #12]
 800103e:	0598      	lsls	r0, r3, #22
 8001040:	d402      	bmi.n	8001048 <_fwrite_r+0x34>
 8001042:	6da0      	ldr	r0, [r4, #88]	; 0x58
 8001044:	f000 f879 	bl	800113a <__retarget_lock_acquire_recursive>
 8001048:	89a3      	ldrh	r3, [r4, #12]
 800104a:	0719      	lsls	r1, r3, #28
 800104c:	d520      	bpl.n	8001090 <_fwrite_r+0x7c>
 800104e:	6923      	ldr	r3, [r4, #16]
 8001050:	b1f3      	cbz	r3, 8001090 <_fwrite_r+0x7c>
 8001052:	2600      	movs	r6, #0
 8001054:	4546      	cmp	r6, r8
 8001056:	d029      	beq.n	80010ac <_fwrite_r+0x98>
 8001058:	68a0      	ldr	r0, [r4, #8]
 800105a:	f819 1006 	ldrb.w	r1, [r9, r6]
 800105e:	3801      	subs	r0, #1
 8001060:	2800      	cmp	r0, #0
 8001062:	60a0      	str	r0, [r4, #8]
 8001064:	da04      	bge.n	8001070 <_fwrite_r+0x5c>
 8001066:	69a3      	ldr	r3, [r4, #24]
 8001068:	4298      	cmp	r0, r3
 800106a:	db19      	blt.n	80010a0 <_fwrite_r+0x8c>
 800106c:	290a      	cmp	r1, #10
 800106e:	d017      	beq.n	80010a0 <_fwrite_r+0x8c>
 8001070:	6823      	ldr	r3, [r4, #0]
 8001072:	1c5a      	adds	r2, r3, #1
 8001074:	6022      	str	r2, [r4, #0]
 8001076:	7019      	strb	r1, [r3, #0]
 8001078:	3601      	adds	r6, #1
 800107a:	e7eb      	b.n	8001054 <_fwrite_r+0x40>
 800107c:	4b13      	ldr	r3, [pc, #76]	; (80010cc <_fwrite_r+0xb8>)
 800107e:	429c      	cmp	r4, r3
 8001080:	d101      	bne.n	8001086 <_fwrite_r+0x72>
 8001082:	68ac      	ldr	r4, [r5, #8]
 8001084:	e7d7      	b.n	8001036 <_fwrite_r+0x22>
 8001086:	4b12      	ldr	r3, [pc, #72]	; (80010d0 <_fwrite_r+0xbc>)
 8001088:	429c      	cmp	r4, r3
 800108a:	bf08      	it	eq
 800108c:	68ec      	ldreq	r4, [r5, #12]
 800108e:	e7d2      	b.n	8001036 <_fwrite_r+0x22>
 8001090:	4621      	mov	r1, r4
 8001092:	4628      	mov	r0, r5
 8001094:	f000 f9aa 	bl	80013ec <__swsetup_r>
 8001098:	2800      	cmp	r0, #0
 800109a:	d0da      	beq.n	8001052 <_fwrite_r+0x3e>
 800109c:	2600      	movs	r6, #0
 800109e:	e005      	b.n	80010ac <_fwrite_r+0x98>
 80010a0:	4622      	mov	r2, r4
 80010a2:	4628      	mov	r0, r5
 80010a4:	f000 f950 	bl	8001348 <__swbuf_r>
 80010a8:	3001      	adds	r0, #1
 80010aa:	d1e5      	bne.n	8001078 <_fwrite_r+0x64>
 80010ac:	6e63      	ldr	r3, [r4, #100]	; 0x64
 80010ae:	07da      	lsls	r2, r3, #31
 80010b0:	d405      	bmi.n	80010be <_fwrite_r+0xaa>
 80010b2:	89a3      	ldrh	r3, [r4, #12]
 80010b4:	059b      	lsls	r3, r3, #22
 80010b6:	d402      	bmi.n	80010be <_fwrite_r+0xaa>
 80010b8:	6da0      	ldr	r0, [r4, #88]	; 0x58
 80010ba:	f000 f83f 	bl	800113c <__retarget_lock_release_recursive>
 80010be:	fbb6 f0f7 	udiv	r0, r6, r7
 80010c2:	e8bd 83f8 	ldmia.w	sp!, {r3, r4, r5, r6, r7, r8, r9, pc}
 80010c6:	bf00      	nop
 80010c8:	08002318 	.word	0x08002318
 80010cc:	08002338 	.word	0x08002338
 80010d0:	080022f8 	.word	0x080022f8

080010d4 <fwrite>:
 80010d4:	b507      	push	{r0, r1, r2, lr}
 80010d6:	9300      	str	r3, [sp, #0]
 80010d8:	4613      	mov	r3, r2
 80010da:	460a      	mov	r2, r1
 80010dc:	4601      	mov	r1, r0
 80010de:	4803      	ldr	r0, [pc, #12]	; (80010ec <fwrite+0x18>)
 80010e0:	6800      	ldr	r0, [r0, #0]
 80010e2:	f7ff ff97 	bl	8001014 <_fwrite_r>
 80010e6:	b003      	add	sp, #12
 80010e8:	f85d fb04 	ldr.w	pc, [sp], #4
 80010ec:	2000002c 	.word	0x2000002c

080010f0 <__libc_init_array>:
 80010f0:	b570      	push	{r4, r5, r6, lr}
 80010f2:	4d0d      	ldr	r5, [pc, #52]	; (8001128 <__libc_init_array+0x38>)
 80010f4:	4c0d      	ldr	r4, [pc, #52]	; (800112c <__libc_init_array+0x3c>)
 80010f6:	1b64      	subs	r4, r4, r5
 80010f8:	10a4      	asrs	r4, r4, #2
 80010fa:	2600      	movs	r6, #0
 80010fc:	42a6      	cmp	r6, r4
 80010fe:	d109      	bne.n	8001114 <__libc_init_array+0x24>
 8001100:	4d0b      	ldr	r5, [pc, #44]	; (8001130 <__libc_init_array+0x40>)
 8001102:	4c0c      	ldr	r4, [pc, #48]	; (8001134 <__libc_init_array+0x44>)
 8001104:	f001 f89a 	bl	800223c <_init>
 8001108:	1b64      	subs	r4, r4, r5
 800110a:	10a4      	asrs	r4, r4, #2
 800110c:	2600      	movs	r6, #0
 800110e:	42a6      	cmp	r6, r4
 8001110:	d105      	bne.n	800111e <__libc_init_array+0x2e>
 8001112:	bd70      	pop	{r4, r5, r6, pc}
 8001114:	f855 3b04 	ldr.w	r3, [r5], #4
 8001118:	4798      	blx	r3
 800111a:	3601      	adds	r6, #1
 800111c:	e7ee      	b.n	80010fc <__libc_init_array+0xc>
 800111e:	f855 3b04 	ldr.w	r3, [r5], #4
 8001122:	4798      	blx	r3
 8001124:	3601      	adds	r6, #1
 8001126:	e7f2      	b.n	800110e <__libc_init_array+0x1e>
 8001128:	0800238c 	.word	0x0800238c
 800112c:	0800238c 	.word	0x0800238c
 8001130:	0800238c 	.word	0x0800238c
 8001134:	08002390 	.word	0x08002390

08001138 <__retarget_lock_init_recursive>:
 8001138:	4770      	bx	lr

0800113a <__retarget_lock_acquire_recursive>:
 800113a:	4770      	bx	lr

0800113c <__retarget_lock_release_recursive>:
 800113c:	4770      	bx	lr

0800113e <memset>:
 800113e:	4402      	add	r2, r0
 8001140:	4603      	mov	r3, r0
 8001142:	4293      	cmp	r3, r2
 8001144:	d100      	bne.n	8001148 <memset+0xa>
 8001146:	4770      	bx	lr
 8001148:	f803 1b01 	strb.w	r1, [r3], #1
 800114c:	e7f9      	b.n	8001142 <memset+0x4>
	...

08001150 <iprintf>:
 8001150:	b40f      	push	{r0, r1, r2, r3}
 8001152:	4b0a      	ldr	r3, [pc, #40]	; (800117c <iprintf+0x2c>)
 8001154:	b513      	push	{r0, r1, r4, lr}
 8001156:	681c      	ldr	r4, [r3, #0]
 8001158:	b124      	cbz	r4, 8001164 <iprintf+0x14>
 800115a:	69a3      	ldr	r3, [r4, #24]
 800115c:	b913      	cbnz	r3, 8001164 <iprintf+0x14>
 800115e:	4620      	mov	r0, r4
 8001160:	f000 facc 	bl	80016fc <__sinit>
 8001164:	ab05      	add	r3, sp, #20
 8001166:	9a04      	ldr	r2, [sp, #16]
 8001168:	68a1      	ldr	r1, [r4, #8]
 800116a:	9301      	str	r3, [sp, #4]
 800116c:	4620      	mov	r0, r4
 800116e:	f000 fca3 	bl	8001ab8 <_vfiprintf_r>
 8001172:	b002      	add	sp, #8
 8001174:	e8bd 4010 	ldmia.w	sp!, {r4, lr}
 8001178:	b004      	add	sp, #16
 800117a:	4770      	bx	lr
 800117c:	2000002c 	.word	0x2000002c

08001180 <putchar>:
 8001180:	4b09      	ldr	r3, [pc, #36]	; (80011a8 <putchar+0x28>)
 8001182:	b513      	push	{r0, r1, r4, lr}
 8001184:	681c      	ldr	r4, [r3, #0]
 8001186:	4601      	mov	r1, r0
 8001188:	b134      	cbz	r4, 8001198 <putchar+0x18>
 800118a:	69a3      	ldr	r3, [r4, #24]
 800118c:	b923      	cbnz	r3, 8001198 <putchar+0x18>
 800118e:	9001      	str	r0, [sp, #4]
 8001190:	4620      	mov	r0, r4
 8001192:	f000 fab3 	bl	80016fc <__sinit>
 8001196:	9901      	ldr	r1, [sp, #4]
 8001198:	68a2      	ldr	r2, [r4, #8]
 800119a:	4620      	mov	r0, r4
 800119c:	b002      	add	sp, #8
 800119e:	e8bd 4010 	ldmia.w	sp!, {r4, lr}
 80011a2:	f000 bf4d 	b.w	8002040 <_putc_r>
 80011a6:	bf00      	nop
 80011a8:	2000002c 	.word	0x2000002c

080011ac <setbuf>:
 80011ac:	2900      	cmp	r1, #0
 80011ae:	f44f 6380 	mov.w	r3, #1024	; 0x400
 80011b2:	bf0c      	ite	eq
 80011b4:	2202      	moveq	r2, #2
 80011b6:	2200      	movne	r2, #0
 80011b8:	f000 b800 	b.w	80011bc <setvbuf>

080011bc <setvbuf>:
 80011bc:	e92d 43f7 	stmdb	sp!, {r0, r1, r2, r4, r5, r6, r7, r8, r9, lr}
 80011c0:	461d      	mov	r5, r3
 80011c2:	4b5d      	ldr	r3, [pc, #372]	; (8001338 <setvbuf+0x17c>)
 80011c4:	681f      	ldr	r7, [r3, #0]
 80011c6:	4604      	mov	r4, r0
 80011c8:	460e      	mov	r6, r1
 80011ca:	4690      	mov	r8, r2
 80011cc:	b127      	cbz	r7, 80011d8 <setvbuf+0x1c>
 80011ce:	69bb      	ldr	r3, [r7, #24]
 80011d0:	b913      	cbnz	r3, 80011d8 <setvbuf+0x1c>
 80011d2:	4638      	mov	r0, r7
 80011d4:	f000 fa92 	bl	80016fc <__sinit>
 80011d8:	4b58      	ldr	r3, [pc, #352]	; (800133c <setvbuf+0x180>)
 80011da:	429c      	cmp	r4, r3
 80011dc:	d167      	bne.n	80012ae <setvbuf+0xf2>
 80011de:	687c      	ldr	r4, [r7, #4]
 80011e0:	f1b8 0f02 	cmp.w	r8, #2
 80011e4:	d006      	beq.n	80011f4 <setvbuf+0x38>
 80011e6:	f1b8 0f01 	cmp.w	r8, #1
 80011ea:	f200 809f 	bhi.w	800132c <setvbuf+0x170>
 80011ee:	2d00      	cmp	r5, #0
 80011f0:	f2c0 809c 	blt.w	800132c <setvbuf+0x170>
 80011f4:	6e63      	ldr	r3, [r4, #100]	; 0x64
 80011f6:	07db      	lsls	r3, r3, #31
 80011f8:	d405      	bmi.n	8001206 <setvbuf+0x4a>
 80011fa:	89a3      	ldrh	r3, [r4, #12]
 80011fc:	0598      	lsls	r0, r3, #22
 80011fe:	d402      	bmi.n	8001206 <setvbuf+0x4a>
 8001200:	6da0      	ldr	r0, [r4, #88]	; 0x58
 8001202:	f7ff ff9a 	bl	800113a <__retarget_lock_acquire_recursive>
 8001206:	4621      	mov	r1, r4
 8001208:	4638      	mov	r0, r7
 800120a:	f000 f9e3 	bl	80015d4 <_fflush_r>
 800120e:	6b61      	ldr	r1, [r4, #52]	; 0x34
 8001210:	b141      	cbz	r1, 8001224 <setvbuf+0x68>
 8001212:	f104 0344 	add.w	r3, r4, #68	; 0x44
 8001216:	4299      	cmp	r1, r3
 8001218:	d002      	beq.n	8001220 <setvbuf+0x64>
 800121a:	4638      	mov	r0, r7
 800121c:	f000 fb78 	bl	8001910 <_free_r>
 8001220:	2300      	movs	r3, #0
 8001222:	6363      	str	r3, [r4, #52]	; 0x34
 8001224:	2300      	movs	r3, #0
 8001226:	61a3      	str	r3, [r4, #24]
 8001228:	6063      	str	r3, [r4, #4]
 800122a:	89a3      	ldrh	r3, [r4, #12]
 800122c:	0619      	lsls	r1, r3, #24
 800122e:	d503      	bpl.n	8001238 <setvbuf+0x7c>
 8001230:	6921      	ldr	r1, [r4, #16]
 8001232:	4638      	mov	r0, r7
 8001234:	f000 fb6c 	bl	8001910 <_free_r>
 8001238:	89a3      	ldrh	r3, [r4, #12]
 800123a:	f423 634a 	bic.w	r3, r3, #3232	; 0xca0
 800123e:	f023 0303 	bic.w	r3, r3, #3
 8001242:	f1b8 0f02 	cmp.w	r8, #2
 8001246:	81a3      	strh	r3, [r4, #12]
 8001248:	d06c      	beq.n	8001324 <setvbuf+0x168>
 800124a:	ab01      	add	r3, sp, #4
 800124c:	466a      	mov	r2, sp
 800124e:	4621      	mov	r1, r4
 8001250:	4638      	mov	r0, r7
 8001252:	f000 faf0 	bl	8001836 <__swhatbuf_r>
 8001256:	89a3      	ldrh	r3, [r4, #12]
 8001258:	4318      	orrs	r0, r3
 800125a:	81a0      	strh	r0, [r4, #12]
 800125c:	2d00      	cmp	r5, #0
 800125e:	d130      	bne.n	80012c2 <setvbuf+0x106>
 8001260:	9d00      	ldr	r5, [sp, #0]
 8001262:	4628      	mov	r0, r5
 8001264:	f000 fb4c 	bl	8001900 <malloc>
 8001268:	4606      	mov	r6, r0
 800126a:	2800      	cmp	r0, #0
 800126c:	d155      	bne.n	800131a <setvbuf+0x15e>
 800126e:	f8dd 9000 	ldr.w	r9, [sp]
 8001272:	45a9      	cmp	r9, r5
 8001274:	d14a      	bne.n	800130c <setvbuf+0x150>
 8001276:	f04f 35ff 	mov.w	r5, #4294967295	; 0xffffffff
 800127a:	2200      	movs	r2, #0
 800127c:	60a2      	str	r2, [r4, #8]
 800127e:	f104 0247 	add.w	r2, r4, #71	; 0x47
 8001282:	6022      	str	r2, [r4, #0]
 8001284:	6122      	str	r2, [r4, #16]
 8001286:	2201      	movs	r2, #1
 8001288:	f9b4 300c 	ldrsh.w	r3, [r4, #12]
 800128c:	6162      	str	r2, [r4, #20]
 800128e:	6e62      	ldr	r2, [r4, #100]	; 0x64
 8001290:	f043 0302 	orr.w	r3, r3, #2
 8001294:	07d2      	lsls	r2, r2, #31
 8001296:	81a3      	strh	r3, [r4, #12]
 8001298:	d405      	bmi.n	80012a6 <setvbuf+0xea>
 800129a:	f413 7f00 	tst.w	r3, #512	; 0x200
 800129e:	d102      	bne.n	80012a6 <setvbuf+0xea>
 80012a0:	6da0      	ldr	r0, [r4, #88]	; 0x58
 80012a2:	f7ff ff4b 	bl	800113c <__retarget_lock_release_recursive>
 80012a6:	4628      	mov	r0, r5
 80012a8:	b003      	add	sp, #12
 80012aa:	e8bd 83f0 	ldmia.w	sp!, {r4, r5, r6, r7, r8, r9, pc}
 80012ae:	4b24      	ldr	r3, [pc, #144]	; (8001340 <setvbuf+0x184>)
 80012b0:	429c      	cmp	r4, r3
 80012b2:	d101      	bne.n	80012b8 <setvbuf+0xfc>
 80012b4:	68bc      	ldr	r4, [r7, #8]
 80012b6:	e793      	b.n	80011e0 <setvbuf+0x24>
 80012b8:	4b22      	ldr	r3, [pc, #136]	; (8001344 <setvbuf+0x188>)
 80012ba:	429c      	cmp	r4, r3
 80012bc:	bf08      	it	eq
 80012be:	68fc      	ldreq	r4, [r7, #12]
 80012c0:	e78e      	b.n	80011e0 <setvbuf+0x24>
 80012c2:	2e00      	cmp	r6, #0
 80012c4:	d0cd      	beq.n	8001262 <setvbuf+0xa6>
 80012c6:	69bb      	ldr	r3, [r7, #24]
 80012c8:	b913      	cbnz	r3, 80012d0 <setvbuf+0x114>
 80012ca:	4638      	mov	r0, r7
 80012cc:	f000 fa16 	bl	80016fc <__sinit>
 80012d0:	f1b8 0f01 	cmp.w	r8, #1
 80012d4:	bf08      	it	eq
 80012d6:	89a3      	ldrheq	r3, [r4, #12]
 80012d8:	6026      	str	r6, [r4, #0]
 80012da:	bf04      	itt	eq
 80012dc:	f043 0301 	orreq.w	r3, r3, #1
 80012e0:	81a3      	strheq	r3, [r4, #12]
 80012e2:	89a2      	ldrh	r2, [r4, #12]
 80012e4:	f012 0308 	ands.w	r3, r2, #8
 80012e8:	e9c4 6504 	strd	r6, r5, [r4, #16]
 80012ec:	d01c      	beq.n	8001328 <setvbuf+0x16c>
 80012ee:	07d3      	lsls	r3, r2, #31
 80012f0:	bf41      	itttt	mi
 80012f2:	2300      	movmi	r3, #0
 80012f4:	426d      	negmi	r5, r5
 80012f6:	60a3      	strmi	r3, [r4, #8]
 80012f8:	61a5      	strmi	r5, [r4, #24]
 80012fa:	bf58      	it	pl
 80012fc:	60a5      	strpl	r5, [r4, #8]
 80012fe:	6e65      	ldr	r5, [r4, #100]	; 0x64
 8001300:	f015 0501 	ands.w	r5, r5, #1
 8001304:	d115      	bne.n	8001332 <setvbuf+0x176>
 8001306:	f412 7f00 	tst.w	r2, #512	; 0x200
 800130a:	e7c8      	b.n	800129e <setvbuf+0xe2>
 800130c:	4648      	mov	r0, r9
 800130e:	f000 faf7 	bl	8001900 <malloc>
 8001312:	4606      	mov	r6, r0
 8001314:	2800      	cmp	r0, #0
 8001316:	d0ae      	beq.n	8001276 <setvbuf+0xba>
 8001318:	464d      	mov	r5, r9
 800131a:	89a3      	ldrh	r3, [r4, #12]
 800131c:	f043 0380 	orr.w	r3, r3, #128	; 0x80
 8001320:	81a3      	strh	r3, [r4, #12]
 8001322:	e7d0      	b.n	80012c6 <setvbuf+0x10a>
 8001324:	2500      	movs	r5, #0
 8001326:	e7a8      	b.n	800127a <setvbuf+0xbe>
 8001328:	60a3      	str	r3, [r4, #8]
 800132a:	e7e8      	b.n	80012fe <setvbuf+0x142>
 800132c:	f04f 35ff 	mov.w	r5, #4294967295	; 0xffffffff
 8001330:	e7b9      	b.n	80012a6 <setvbuf+0xea>
 8001332:	2500      	movs	r5, #0
 8001334:	e7b7      	b.n	80012a6 <setvbuf+0xea>
 8001336:	bf00      	nop
 8001338:	2000002c 	.word	0x2000002c
 800133c:	08002318 	.word	0x08002318
 8001340:	08002338 	.word	0x08002338
 8001344:	080022f8 	.word	0x080022f8

08001348 <__swbuf_r>:
 8001348:	b5f8      	push	{r3, r4, r5, r6, r7, lr}
 800134a:	460e      	mov	r6, r1
 800134c:	4614      	mov	r4, r2
 800134e:	4605      	mov	r5, r0
 8001350:	b118      	cbz	r0, 800135a <__swbuf_r+0x12>
 8001352:	6983      	ldr	r3, [r0, #24]
 8001354:	b90b      	cbnz	r3, 800135a <__swbuf_r+0x12>
 8001356:	f000 f9d1 	bl	80016fc <__sinit>
 800135a:	4b21      	ldr	r3, [pc, #132]	; (80013e0 <__swbuf_r+0x98>)
 800135c:	429c      	cmp	r4, r3
 800135e:	d12b      	bne.n	80013b8 <__swbuf_r+0x70>
 8001360:	686c      	ldr	r4, [r5, #4]
 8001362:	69a3      	ldr	r3, [r4, #24]
 8001364:	60a3      	str	r3, [r4, #8]
 8001366:	89a3      	ldrh	r3, [r4, #12]
 8001368:	071a      	lsls	r2, r3, #28
 800136a:	d52f      	bpl.n	80013cc <__swbuf_r+0x84>
 800136c:	6923      	ldr	r3, [r4, #16]
 800136e:	b36b      	cbz	r3, 80013cc <__swbuf_r+0x84>
 8001370:	6923      	ldr	r3, [r4, #16]
 8001372:	6820      	ldr	r0, [r4, #0]
 8001374:	1ac0      	subs	r0, r0, r3
 8001376:	6963      	ldr	r3, [r4, #20]
 8001378:	b2f6      	uxtb	r6, r6
 800137a:	4283      	cmp	r3, r0
 800137c:	4637      	mov	r7, r6
 800137e:	dc04      	bgt.n	800138a <__swbuf_r+0x42>
 8001380:	4621      	mov	r1, r4
 8001382:	4628      	mov	r0, r5
 8001384:	f000 f926 	bl	80015d4 <_fflush_r>
 8001388:	bb30      	cbnz	r0, 80013d8 <__swbuf_r+0x90>
 800138a:	68a3      	ldr	r3, [r4, #8]
 800138c:	3b01      	subs	r3, #1
 800138e:	60a3      	str	r3, [r4, #8]
 8001390:	6823      	ldr	r3, [r4, #0]
 8001392:	1c5a      	adds	r2, r3, #1
 8001394:	6022      	str	r2, [r4, #0]
 8001396:	701e      	strb	r6, [r3, #0]
 8001398:	6963      	ldr	r3, [r4, #20]
 800139a:	3001      	adds	r0, #1
 800139c:	4283      	cmp	r3, r0
 800139e:	d004      	beq.n	80013aa <__swbuf_r+0x62>
 80013a0:	89a3      	ldrh	r3, [r4, #12]
 80013a2:	07db      	lsls	r3, r3, #31
 80013a4:	d506      	bpl.n	80013b4 <__swbuf_r+0x6c>
 80013a6:	2e0a      	cmp	r6, #10
 80013a8:	d104      	bne.n	80013b4 <__swbuf_r+0x6c>
 80013aa:	4621      	mov	r1, r4
 80013ac:	4628      	mov	r0, r5
 80013ae:	f000 f911 	bl	80015d4 <_fflush_r>
 80013b2:	b988      	cbnz	r0, 80013d8 <__swbuf_r+0x90>
 80013b4:	4638      	mov	r0, r7
 80013b6:	bdf8      	pop	{r3, r4, r5, r6, r7, pc}
 80013b8:	4b0a      	ldr	r3, [pc, #40]	; (80013e4 <__swbuf_r+0x9c>)
 80013ba:	429c      	cmp	r4, r3
 80013bc:	d101      	bne.n	80013c2 <__swbuf_r+0x7a>
 80013be:	68ac      	ldr	r4, [r5, #8]
 80013c0:	e7cf      	b.n	8001362 <__swbuf_r+0x1a>
 80013c2:	4b09      	ldr	r3, [pc, #36]	; (80013e8 <__swbuf_r+0xa0>)
 80013c4:	429c      	cmp	r4, r3
 80013c6:	bf08      	it	eq
 80013c8:	68ec      	ldreq	r4, [r5, #12]
 80013ca:	e7ca      	b.n	8001362 <__swbuf_r+0x1a>
 80013cc:	4621      	mov	r1, r4
 80013ce:	4628      	mov	r0, r5
 80013d0:	f000 f80c 	bl	80013ec <__swsetup_r>
 80013d4:	2800      	cmp	r0, #0
 80013d6:	d0cb      	beq.n	8001370 <__swbuf_r+0x28>
 80013d8:	f04f 37ff 	mov.w	r7, #4294967295	; 0xffffffff
 80013dc:	e7ea      	b.n	80013b4 <__swbuf_r+0x6c>
 80013de:	bf00      	nop
 80013e0:	08002318 	.word	0x08002318
 80013e4:	08002338 	.word	0x08002338
 80013e8:	080022f8 	.word	0x080022f8

080013ec <__swsetup_r>:
 80013ec:	4b32      	ldr	r3, [pc, #200]	; (80014b8 <__swsetup_r+0xcc>)
 80013ee:	b570      	push	{r4, r5, r6, lr}
 80013f0:	681d      	ldr	r5, [r3, #0]
 80013f2:	4606      	mov	r6, r0
 80013f4:	460c      	mov	r4, r1
 80013f6:	b125      	cbz	r5, 8001402 <__swsetup_r+0x16>
 80013f8:	69ab      	ldr	r3, [r5, #24]
 80013fa:	b913      	cbnz	r3, 8001402 <__swsetup_r+0x16>
 80013fc:	4628      	mov	r0, r5
 80013fe:	f000 f97d 	bl	80016fc <__sinit>
 8001402:	4b2e      	ldr	r3, [pc, #184]	; (80014bc <__swsetup_r+0xd0>)
 8001404:	429c      	cmp	r4, r3
 8001406:	d10f      	bne.n	8001428 <__swsetup_r+0x3c>
 8001408:	686c      	ldr	r4, [r5, #4]
 800140a:	89a3      	ldrh	r3, [r4, #12]
 800140c:	f9b4 200c 	ldrsh.w	r2, [r4, #12]
 8001410:	0719      	lsls	r1, r3, #28
 8001412:	d42c      	bmi.n	800146e <__swsetup_r+0x82>
 8001414:	06dd      	lsls	r5, r3, #27
 8001416:	d411      	bmi.n	800143c <__swsetup_r+0x50>
 8001418:	2309      	movs	r3, #9
 800141a:	6033      	str	r3, [r6, #0]
 800141c:	f042 0340 	orr.w	r3, r2, #64	; 0x40
 8001420:	81a3      	strh	r3, [r4, #12]
 8001422:	f04f 30ff 	mov.w	r0, #4294967295	; 0xffffffff
 8001426:	e03e      	b.n	80014a6 <__swsetup_r+0xba>
 8001428:	4b25      	ldr	r3, [pc, #148]	; (80014c0 <__swsetup_r+0xd4>)
 800142a:	429c      	cmp	r4, r3
 800142c:	d101      	bne.n	8001432 <__swsetup_r+0x46>
 800142e:	68ac      	ldr	r4, [r5, #8]
 8001430:	e7eb      	b.n	800140a <__swsetup_r+0x1e>
 8001432:	4b24      	ldr	r3, [pc, #144]	; (80014c4 <__swsetup_r+0xd8>)
 8001434:	429c      	cmp	r4, r3
 8001436:	bf08      	it	eq
 8001438:	68ec      	ldreq	r4, [r5, #12]
 800143a:	e7e6      	b.n	800140a <__swsetup_r+0x1e>
 800143c:	0758      	lsls	r0, r3, #29
 800143e:	d512      	bpl.n	8001466 <__swsetup_r+0x7a>
 8001440:	6b61      	ldr	r1, [r4, #52]	; 0x34
 8001442:	b141      	cbz	r1, 8001456 <__swsetup_r+0x6a>
 8001444:	f104 0344 	add.w	r3, r4, #68	; 0x44
 8001448:	4299      	cmp	r1, r3
 800144a:	d002      	beq.n	8001452 <__swsetup_r+0x66>
 800144c:	4630      	mov	r0, r6
 800144e:	f000 fa5f 	bl	8001910 <_free_r>
 8001452:	2300      	movs	r3, #0
 8001454:	6363      	str	r3, [r4, #52]	; 0x34
 8001456:	89a3      	ldrh	r3, [r4, #12]
 8001458:	f023 0324 	bic.w	r3, r3, #36	; 0x24
 800145c:	81a3      	strh	r3, [r4, #12]
 800145e:	2300      	movs	r3, #0
 8001460:	6063      	str	r3, [r4, #4]
 8001462:	6923      	ldr	r3, [r4, #16]
 8001464:	6023      	str	r3, [r4, #0]
 8001466:	89a3      	ldrh	r3, [r4, #12]
 8001468:	f043 0308 	orr.w	r3, r3, #8
 800146c:	81a3      	strh	r3, [r4, #12]
 800146e:	6923      	ldr	r3, [r4, #16]
 8001470:	b94b      	cbnz	r3, 8001486 <__swsetup_r+0x9a>
 8001472:	89a3      	ldrh	r3, [r4, #12]
 8001474:	f403 7320 	and.w	r3, r3, #640	; 0x280
 8001478:	f5b3 7f00 	cmp.w	r3, #512	; 0x200
 800147c:	d003      	beq.n	8001486 <__swsetup_r+0x9a>
 800147e:	4621      	mov	r1, r4
 8001480:	4630      	mov	r0, r6
 8001482:	f000 f9fd 	bl	8001880 <__smakebuf_r>
 8001486:	89a0      	ldrh	r0, [r4, #12]
 8001488:	f9b4 200c 	ldrsh.w	r2, [r4, #12]
 800148c:	f010 0301 	ands.w	r3, r0, #1
 8001490:	d00a      	beq.n	80014a8 <__swsetup_r+0xbc>
 8001492:	2300      	movs	r3, #0
 8001494:	60a3      	str	r3, [r4, #8]
 8001496:	6963      	ldr	r3, [r4, #20]
 8001498:	425b      	negs	r3, r3
 800149a:	61a3      	str	r3, [r4, #24]
 800149c:	6923      	ldr	r3, [r4, #16]
 800149e:	b943      	cbnz	r3, 80014b2 <__swsetup_r+0xc6>
 80014a0:	f010 0080 	ands.w	r0, r0, #128	; 0x80
 80014a4:	d1ba      	bne.n	800141c <__swsetup_r+0x30>
 80014a6:	bd70      	pop	{r4, r5, r6, pc}
 80014a8:	0781      	lsls	r1, r0, #30
 80014aa:	bf58      	it	pl
 80014ac:	6963      	ldrpl	r3, [r4, #20]
 80014ae:	60a3      	str	r3, [r4, #8]
 80014b0:	e7f4      	b.n	800149c <__swsetup_r+0xb0>
 80014b2:	2000      	movs	r0, #0
 80014b4:	e7f7      	b.n	80014a6 <__swsetup_r+0xba>
 80014b6:	bf00      	nop
 80014b8:	2000002c 	.word	0x2000002c
 80014bc:	08002318 	.word	0x08002318
 80014c0:	08002338 	.word	0x08002338
 80014c4:	080022f8 	.word	0x080022f8

080014c8 <__sflush_r>:
 80014c8:	898a      	ldrh	r2, [r1, #12]
 80014ca:	e92d 41f0 	stmdb	sp!, {r4, r5, r6, r7, r8, lr}
 80014ce:	4605      	mov	r5, r0
 80014d0:	0710      	lsls	r0, r2, #28
 80014d2:	460c      	mov	r4, r1
 80014d4:	d458      	bmi.n	8001588 <__sflush_r+0xc0>
 80014d6:	684b      	ldr	r3, [r1, #4]
 80014d8:	2b00      	cmp	r3, #0
 80014da:	dc05      	bgt.n	80014e8 <__sflush_r+0x20>
 80014dc:	6c0b      	ldr	r3, [r1, #64]	; 0x40
 80014de:	2b00      	cmp	r3, #0
 80014e0:	dc02      	bgt.n	80014e8 <__sflush_r+0x20>
 80014e2:	2000      	movs	r0, #0
 80014e4:	e8bd 81f0 	ldmia.w	sp!, {r4, r5, r6, r7, r8, pc}
 80014e8:	6ae6      	ldr	r6, [r4, #44]	; 0x2c
 80014ea:	2e00      	cmp	r6, #0
 80014ec:	d0f9      	beq.n	80014e2 <__sflush_r+0x1a>
 80014ee:	2300      	movs	r3, #0
 80014f0:	f412 5280 	ands.w	r2, r2, #4096	; 0x1000
 80014f4:	682f      	ldr	r7, [r5, #0]
 80014f6:	602b      	str	r3, [r5, #0]
 80014f8:	d032      	beq.n	8001560 <__sflush_r+0x98>
 80014fa:	6d60      	ldr	r0, [r4, #84]	; 0x54
 80014fc:	89a3      	ldrh	r3, [r4, #12]
 80014fe:	075a      	lsls	r2, r3, #29
 8001500:	d505      	bpl.n	800150e <__sflush_r+0x46>
 8001502:	6863      	ldr	r3, [r4, #4]
 8001504:	1ac0      	subs	r0, r0, r3
 8001506:	6b63      	ldr	r3, [r4, #52]	; 0x34
 8001508:	b10b      	cbz	r3, 800150e <__sflush_r+0x46>
 800150a:	6c23      	ldr	r3, [r4, #64]	; 0x40
 800150c:	1ac0      	subs	r0, r0, r3
 800150e:	2300      	movs	r3, #0
 8001510:	4602      	mov	r2, r0
 8001512:	6ae6      	ldr	r6, [r4, #44]	; 0x2c
 8001514:	6a21      	ldr	r1, [r4, #32]
 8001516:	4628      	mov	r0, r5
 8001518:	47b0      	blx	r6
 800151a:	1c43      	adds	r3, r0, #1
 800151c:	89a3      	ldrh	r3, [r4, #12]
 800151e:	d106      	bne.n	800152e <__sflush_r+0x66>
 8001520:	6829      	ldr	r1, [r5, #0]
 8001522:	291d      	cmp	r1, #29
 8001524:	d82c      	bhi.n	8001580 <__sflush_r+0xb8>
 8001526:	4a2a      	ldr	r2, [pc, #168]	; (80015d0 <__sflush_r+0x108>)
 8001528:	40ca      	lsrs	r2, r1
 800152a:	07d6      	lsls	r6, r2, #31
 800152c:	d528      	bpl.n	8001580 <__sflush_r+0xb8>
 800152e:	2200      	movs	r2, #0
 8001530:	6062      	str	r2, [r4, #4]
 8001532:	04d9      	lsls	r1, r3, #19
 8001534:	6922      	ldr	r2, [r4, #16]
 8001536:	6022      	str	r2, [r4, #0]
 8001538:	d504      	bpl.n	8001544 <__sflush_r+0x7c>
 800153a:	1c42      	adds	r2, r0, #1
 800153c:	d101      	bne.n	8001542 <__sflush_r+0x7a>
 800153e:	682b      	ldr	r3, [r5, #0]
 8001540:	b903      	cbnz	r3, 8001544 <__sflush_r+0x7c>
 8001542:	6560      	str	r0, [r4, #84]	; 0x54
 8001544:	6b61      	ldr	r1, [r4, #52]	; 0x34
 8001546:	602f      	str	r7, [r5, #0]
 8001548:	2900      	cmp	r1, #0
 800154a:	d0ca      	beq.n	80014e2 <__sflush_r+0x1a>
 800154c:	f104 0344 	add.w	r3, r4, #68	; 0x44
 8001550:	4299      	cmp	r1, r3
 8001552:	d002      	beq.n	800155a <__sflush_r+0x92>
 8001554:	4628      	mov	r0, r5
 8001556:	f000 f9db 	bl	8001910 <_free_r>
 800155a:	2000      	movs	r0, #0
 800155c:	6360      	str	r0, [r4, #52]	; 0x34
 800155e:	e7c1      	b.n	80014e4 <__sflush_r+0x1c>
 8001560:	6a21      	ldr	r1, [r4, #32]
 8001562:	2301      	movs	r3, #1
 8001564:	4628      	mov	r0, r5
 8001566:	47b0      	blx	r6
 8001568:	1c41      	adds	r1, r0, #1
 800156a:	d1c7      	bne.n	80014fc <__sflush_r+0x34>
 800156c:	682b      	ldr	r3, [r5, #0]
 800156e:	2b00      	cmp	r3, #0
 8001570:	d0c4      	beq.n	80014fc <__sflush_r+0x34>
 8001572:	2b1d      	cmp	r3, #29
 8001574:	d001      	beq.n	800157a <__sflush_r+0xb2>
 8001576:	2b16      	cmp	r3, #22
 8001578:	d101      	bne.n	800157e <__sflush_r+0xb6>
 800157a:	602f      	str	r7, [r5, #0]
 800157c:	e7b1      	b.n	80014e2 <__sflush_r+0x1a>
 800157e:	89a3      	ldrh	r3, [r4, #12]
 8001580:	f043 0340 	orr.w	r3, r3, #64	; 0x40
 8001584:	81a3      	strh	r3, [r4, #12]
 8001586:	e7ad      	b.n	80014e4 <__sflush_r+0x1c>
 8001588:	690f      	ldr	r7, [r1, #16]
 800158a:	2f00      	cmp	r7, #0
 800158c:	d0a9      	beq.n	80014e2 <__sflush_r+0x1a>
 800158e:	0793      	lsls	r3, r2, #30
 8001590:	680e      	ldr	r6, [r1, #0]
 8001592:	bf08      	it	eq
 8001594:	694b      	ldreq	r3, [r1, #20]
 8001596:	600f      	str	r7, [r1, #0]
 8001598:	bf18      	it	ne
 800159a:	2300      	movne	r3, #0
 800159c:	eba6 0807 	sub.w	r8, r6, r7
 80015a0:	608b      	str	r3, [r1, #8]
 80015a2:	f1b8 0f00 	cmp.w	r8, #0
 80015a6:	dd9c      	ble.n	80014e2 <__sflush_r+0x1a>
 80015a8:	6a21      	ldr	r1, [r4, #32]
 80015aa:	6aa6      	ldr	r6, [r4, #40]	; 0x28
 80015ac:	4643      	mov	r3, r8
 80015ae:	463a      	mov	r2, r7
 80015b0:	4628      	mov	r0, r5
 80015b2:	47b0      	blx	r6
 80015b4:	2800      	cmp	r0, #0
 80015b6:	dc06      	bgt.n	80015c6 <__sflush_r+0xfe>
 80015b8:	89a3      	ldrh	r3, [r4, #12]
 80015ba:	f043 0340 	orr.w	r3, r3, #64	; 0x40
 80015be:	81a3      	strh	r3, [r4, #12]
 80015c0:	f04f 30ff 	mov.w	r0, #4294967295	; 0xffffffff
 80015c4:	e78e      	b.n	80014e4 <__sflush_r+0x1c>
 80015c6:	4407      	add	r7, r0
 80015c8:	eba8 0800 	sub.w	r8, r8, r0
 80015cc:	e7e9      	b.n	80015a2 <__sflush_r+0xda>
 80015ce:	bf00      	nop
 80015d0:	20400001 	.word	0x20400001

080015d4 <_fflush_r>:
 80015d4:	b538      	push	{r3, r4, r5, lr}
 80015d6:	690b      	ldr	r3, [r1, #16]
 80015d8:	4605      	mov	r5, r0
 80015da:	460c      	mov	r4, r1
 80015dc:	b913      	cbnz	r3, 80015e4 <_fflush_r+0x10>
 80015de:	2500      	movs	r5, #0
 80015e0:	4628      	mov	r0, r5
 80015e2:	bd38      	pop	{r3, r4, r5, pc}
 80015e4:	b118      	cbz	r0, 80015ee <_fflush_r+0x1a>
 80015e6:	6983      	ldr	r3, [r0, #24]
 80015e8:	b90b      	cbnz	r3, 80015ee <_fflush_r+0x1a>
 80015ea:	f000 f887 	bl	80016fc <__sinit>
 80015ee:	4b14      	ldr	r3, [pc, #80]	; (8001640 <_fflush_r+0x6c>)
 80015f0:	429c      	cmp	r4, r3
 80015f2:	d11b      	bne.n	800162c <_fflush_r+0x58>
 80015f4:	686c      	ldr	r4, [r5, #4]
 80015f6:	f9b4 300c 	ldrsh.w	r3, [r4, #12]
 80015fa:	2b00      	cmp	r3, #0
 80015fc:	d0ef      	beq.n	80015de <_fflush_r+0xa>
 80015fe:	6e62      	ldr	r2, [r4, #100]	; 0x64
 8001600:	07d0      	lsls	r0, r2, #31
 8001602:	d404      	bmi.n	800160e <_fflush_r+0x3a>
 8001604:	0599      	lsls	r1, r3, #22
 8001606:	d402      	bmi.n	800160e <_fflush_r+0x3a>
 8001608:	6da0      	ldr	r0, [r4, #88]	; 0x58
 800160a:	f7ff fd96 	bl	800113a <__retarget_lock_acquire_recursive>
 800160e:	4628      	mov	r0, r5
 8001610:	4621      	mov	r1, r4
 8001612:	f7ff ff59 	bl	80014c8 <__sflush_r>
 8001616:	6e63      	ldr	r3, [r4, #100]	; 0x64
 8001618:	07da      	lsls	r2, r3, #31
 800161a:	4605      	mov	r5, r0
 800161c:	d4e0      	bmi.n	80015e0 <_fflush_r+0xc>
 800161e:	89a3      	ldrh	r3, [r4, #12]
 8001620:	059b      	lsls	r3, r3, #22
 8001622:	d4dd      	bmi.n	80015e0 <_fflush_r+0xc>
 8001624:	6da0      	ldr	r0, [r4, #88]	; 0x58
 8001626:	f7ff fd89 	bl	800113c <__retarget_lock_release_recursive>
 800162a:	e7d9      	b.n	80015e0 <_fflush_r+0xc>
 800162c:	4b05      	ldr	r3, [pc, #20]	; (8001644 <_fflush_r+0x70>)
 800162e:	429c      	cmp	r4, r3
 8001630:	d101      	bne.n	8001636 <_fflush_r+0x62>
 8001632:	68ac      	ldr	r4, [r5, #8]
 8001634:	e7df      	b.n	80015f6 <_fflush_r+0x22>
 8001636:	4b04      	ldr	r3, [pc, #16]	; (8001648 <_fflush_r+0x74>)
 8001638:	429c      	cmp	r4, r3
 800163a:	bf08      	it	eq
 800163c:	68ec      	ldreq	r4, [r5, #12]
 800163e:	e7da      	b.n	80015f6 <_fflush_r+0x22>
 8001640:	08002318 	.word	0x08002318
 8001644:	08002338 	.word	0x08002338
 8001648:	080022f8 	.word	0x080022f8

0800164c <std>:
 800164c:	2300      	movs	r3, #0
 800164e:	b510      	push	{r4, lr}
 8001650:	4604      	mov	r4, r0
 8001652:	e9c0 3300 	strd	r3, r3, [r0]
 8001656:	e9c0 3304 	strd	r3, r3, [r0, #16]
 800165a:	6083      	str	r3, [r0, #8]
 800165c:	8181      	strh	r1, [r0, #12]
 800165e:	6643      	str	r3, [r0, #100]	; 0x64
 8001660:	81c2      	strh	r2, [r0, #14]
 8001662:	6183      	str	r3, [r0, #24]
 8001664:	4619      	mov	r1, r3
 8001666:	2208      	movs	r2, #8
 8001668:	305c      	adds	r0, #92	; 0x5c
 800166a:	f7ff fd68 	bl	800113e <memset>
 800166e:	4b05      	ldr	r3, [pc, #20]	; (8001684 <std+0x38>)
 8001670:	6263      	str	r3, [r4, #36]	; 0x24
 8001672:	4b05      	ldr	r3, [pc, #20]	; (8001688 <std+0x3c>)
 8001674:	62a3      	str	r3, [r4, #40]	; 0x28
 8001676:	4b05      	ldr	r3, [pc, #20]	; (800168c <std+0x40>)
 8001678:	62e3      	str	r3, [r4, #44]	; 0x2c
 800167a:	4b05      	ldr	r3, [pc, #20]	; (8001690 <std+0x44>)
 800167c:	6224      	str	r4, [r4, #32]
 800167e:	6323      	str	r3, [r4, #48]	; 0x30
 8001680:	bd10      	pop	{r4, pc}
 8001682:	bf00      	nop
 8001684:	080020f1 	.word	0x080020f1
 8001688:	08002113 	.word	0x08002113
 800168c:	0800214b 	.word	0x0800214b
 8001690:	0800216f 	.word	0x0800216f

08001694 <_cleanup_r>:
 8001694:	4901      	ldr	r1, [pc, #4]	; (800169c <_cleanup_r+0x8>)
 8001696:	f000 b8af 	b.w	80017f8 <_fwalk_reent>
 800169a:	bf00      	nop
 800169c:	080015d5 	.word	0x080015d5

080016a0 <__sfmoreglue>:
 80016a0:	b570      	push	{r4, r5, r6, lr}
 80016a2:	1e4a      	subs	r2, r1, #1
 80016a4:	2568      	movs	r5, #104	; 0x68
 80016a6:	4355      	muls	r5, r2
 80016a8:	460e      	mov	r6, r1
 80016aa:	f105 0174 	add.w	r1, r5, #116	; 0x74
 80016ae:	f000 f97f 	bl	80019b0 <_malloc_r>
 80016b2:	4604      	mov	r4, r0
 80016b4:	b140      	cbz	r0, 80016c8 <__sfmoreglue+0x28>
 80016b6:	2100      	movs	r1, #0
 80016b8:	e9c0 1600 	strd	r1, r6, [r0]
 80016bc:	300c      	adds	r0, #12
 80016be:	60a0      	str	r0, [r4, #8]
 80016c0:	f105 0268 	add.w	r2, r5, #104	; 0x68
 80016c4:	f7ff fd3b 	bl	800113e <memset>
 80016c8:	4620      	mov	r0, r4
 80016ca:	bd70      	pop	{r4, r5, r6, pc}

080016cc <__sfp_lock_acquire>:
 80016cc:	4801      	ldr	r0, [pc, #4]	; (80016d4 <__sfp_lock_acquire+0x8>)
 80016ce:	f7ff bd34 	b.w	800113a <__retarget_lock_acquire_recursive>
 80016d2:	bf00      	nop
 80016d4:	200001c4 	.word	0x200001c4

080016d8 <__sfp_lock_release>:
 80016d8:	4801      	ldr	r0, [pc, #4]	; (80016e0 <__sfp_lock_release+0x8>)
 80016da:	f7ff bd2f 	b.w	800113c <__retarget_lock_release_recursive>
 80016de:	bf00      	nop
 80016e0:	200001c4 	.word	0x200001c4

080016e4 <__sinit_lock_acquire>:
 80016e4:	4801      	ldr	r0, [pc, #4]	; (80016ec <__sinit_lock_acquire+0x8>)
 80016e6:	f7ff bd28 	b.w	800113a <__retarget_lock_acquire_recursive>
 80016ea:	bf00      	nop
 80016ec:	200001bf 	.word	0x200001bf

080016f0 <__sinit_lock_release>:
 80016f0:	4801      	ldr	r0, [pc, #4]	; (80016f8 <__sinit_lock_release+0x8>)
 80016f2:	f7ff bd23 	b.w	800113c <__retarget_lock_release_recursive>
 80016f6:	bf00      	nop
 80016f8:	200001bf 	.word	0x200001bf

080016fc <__sinit>:
 80016fc:	b510      	push	{r4, lr}
 80016fe:	4604      	mov	r4, r0
 8001700:	f7ff fff0 	bl	80016e4 <__sinit_lock_acquire>
 8001704:	69a3      	ldr	r3, [r4, #24]
 8001706:	b11b      	cbz	r3, 8001710 <__sinit+0x14>
 8001708:	e8bd 4010 	ldmia.w	sp!, {r4, lr}
 800170c:	f7ff bff0 	b.w	80016f0 <__sinit_lock_release>
 8001710:	e9c4 3312 	strd	r3, r3, [r4, #72]	; 0x48
 8001714:	6523      	str	r3, [r4, #80]	; 0x50
 8001716:	4b13      	ldr	r3, [pc, #76]	; (8001764 <__sinit+0x68>)
 8001718:	4a13      	ldr	r2, [pc, #76]	; (8001768 <__sinit+0x6c>)
 800171a:	681b      	ldr	r3, [r3, #0]
 800171c:	62a2      	str	r2, [r4, #40]	; 0x28
 800171e:	42a3      	cmp	r3, r4
 8001720:	bf04      	itt	eq
 8001722:	2301      	moveq	r3, #1
 8001724:	61a3      	streq	r3, [r4, #24]
 8001726:	4620      	mov	r0, r4
 8001728:	f000 f820 	bl	800176c <__sfp>
 800172c:	6060      	str	r0, [r4, #4]
 800172e:	4620      	mov	r0, r4
 8001730:	f000 f81c 	bl	800176c <__sfp>
 8001734:	60a0      	str	r0, [r4, #8]
 8001736:	4620      	mov	r0, r4
 8001738:	f000 f818 	bl	800176c <__sfp>
 800173c:	2200      	movs	r2, #0
 800173e:	60e0      	str	r0, [r4, #12]
 8001740:	2104      	movs	r1, #4
 8001742:	6860      	ldr	r0, [r4, #4]
 8001744:	f7ff ff82 	bl	800164c <std>
 8001748:	68a0      	ldr	r0, [r4, #8]
 800174a:	2201      	movs	r2, #1
 800174c:	2109      	movs	r1, #9
 800174e:	f7ff ff7d 	bl	800164c <std>
 8001752:	68e0      	ldr	r0, [r4, #12]
 8001754:	2202      	movs	r2, #2
 8001756:	2112      	movs	r1, #18
 8001758:	f7ff ff78 	bl	800164c <std>
 800175c:	2301      	movs	r3, #1
 800175e:	61a3      	str	r3, [r4, #24]
 8001760:	e7d2      	b.n	8001708 <__sinit+0xc>
 8001762:	bf00      	nop
 8001764:	080022f4 	.word	0x080022f4
 8001768:	08001695 	.word	0x08001695

0800176c <__sfp>:
 800176c:	b5f8      	push	{r3, r4, r5, r6, r7, lr}
 800176e:	4607      	mov	r7, r0
 8001770:	f7ff ffac 	bl	80016cc <__sfp_lock_acquire>
 8001774:	4b1e      	ldr	r3, [pc, #120]	; (80017f0 <__sfp+0x84>)
 8001776:	681e      	ldr	r6, [r3, #0]
 8001778:	69b3      	ldr	r3, [r6, #24]
 800177a:	b913      	cbnz	r3, 8001782 <__sfp+0x16>
 800177c:	4630      	mov	r0, r6
 800177e:	f7ff ffbd 	bl	80016fc <__sinit>
 8001782:	3648      	adds	r6, #72	; 0x48
 8001784:	e9d6 3401 	ldrd	r3, r4, [r6, #4]
 8001788:	3b01      	subs	r3, #1
 800178a:	d503      	bpl.n	8001794 <__sfp+0x28>
 800178c:	6833      	ldr	r3, [r6, #0]
 800178e:	b30b      	cbz	r3, 80017d4 <__sfp+0x68>
 8001790:	6836      	ldr	r6, [r6, #0]
 8001792:	e7f7      	b.n	8001784 <__sfp+0x18>
 8001794:	f9b4 500c 	ldrsh.w	r5, [r4, #12]
 8001798:	b9d5      	cbnz	r5, 80017d0 <__sfp+0x64>
 800179a:	4b16      	ldr	r3, [pc, #88]	; (80017f4 <__sfp+0x88>)
 800179c:	60e3      	str	r3, [r4, #12]
 800179e:	f104 0058 	add.w	r0, r4, #88	; 0x58
 80017a2:	6665      	str	r5, [r4, #100]	; 0x64
 80017a4:	f7ff fcc8 	bl	8001138 <__retarget_lock_init_recursive>
 80017a8:	f7ff ff96 	bl	80016d8 <__sfp_lock_release>
 80017ac:	e9c4 5501 	strd	r5, r5, [r4, #4]
 80017b0:	e9c4 5504 	strd	r5, r5, [r4, #16]
 80017b4:	6025      	str	r5, [r4, #0]
 80017b6:	61a5      	str	r5, [r4, #24]
 80017b8:	2208      	movs	r2, #8
 80017ba:	4629      	mov	r1, r5
 80017bc:	f104 005c 	add.w	r0, r4, #92	; 0x5c
 80017c0:	f7ff fcbd 	bl	800113e <memset>
 80017c4:	e9c4 550d 	strd	r5, r5, [r4, #52]	; 0x34
 80017c8:	e9c4 5512 	strd	r5, r5, [r4, #72]	; 0x48
 80017cc:	4620      	mov	r0, r4
 80017ce:	bdf8      	pop	{r3, r4, r5, r6, r7, pc}
 80017d0:	3468      	adds	r4, #104	; 0x68
 80017d2:	e7d9      	b.n	8001788 <__sfp+0x1c>
 80017d4:	2104      	movs	r1, #4
 80017d6:	4638      	mov	r0, r7
 80017d8:	f7ff ff62 	bl	80016a0 <__sfmoreglue>
 80017dc:	4604      	mov	r4, r0
 80017de:	6030      	str	r0, [r6, #0]
 80017e0:	2800      	cmp	r0, #0
 80017e2:	d1d5      	bne.n	8001790 <__sfp+0x24>
 80017e4:	f7ff ff78 	bl	80016d8 <__sfp_lock_release>
 80017e8:	230c      	movs	r3, #12
 80017ea:	603b      	str	r3, [r7, #0]
 80017ec:	e7ee      	b.n	80017cc <__sfp+0x60>
 80017ee:	bf00      	nop
 80017f0:	080022f4 	.word	0x080022f4
 80017f4:	ffff0001 	.word	0xffff0001

080017f8 <_fwalk_reent>:
 80017f8:	e92d 43f8 	stmdb	sp!, {r3, r4, r5, r6, r7, r8, r9, lr}
 80017fc:	4606      	mov	r6, r0
 80017fe:	4688      	mov	r8, r1
 8001800:	f100 0448 	add.w	r4, r0, #72	; 0x48
 8001804:	2700      	movs	r7, #0
 8001806:	e9d4 9501 	ldrd	r9, r5, [r4, #4]
 800180a:	f1b9 0901 	subs.w	r9, r9, #1
 800180e:	d505      	bpl.n	800181c <_fwalk_reent+0x24>
 8001810:	6824      	ldr	r4, [r4, #0]
 8001812:	2c00      	cmp	r4, #0
 8001814:	d1f7      	bne.n	8001806 <_fwalk_reent+0xe>
 8001816:	4638      	mov	r0, r7
 8001818:	e8bd 83f8 	ldmia.w	sp!, {r3, r4, r5, r6, r7, r8, r9, pc}
 800181c:	89ab      	ldrh	r3, [r5, #12]
 800181e:	2b01      	cmp	r3, #1
 8001820:	d907      	bls.n	8001832 <_fwalk_reent+0x3a>
 8001822:	f9b5 300e 	ldrsh.w	r3, [r5, #14]
 8001826:	3301      	adds	r3, #1
 8001828:	d003      	beq.n	8001832 <_fwalk_reent+0x3a>
 800182a:	4629      	mov	r1, r5
 800182c:	4630      	mov	r0, r6
 800182e:	47c0      	blx	r8
 8001830:	4307      	orrs	r7, r0
 8001832:	3568      	adds	r5, #104	; 0x68
 8001834:	e7e9      	b.n	800180a <_fwalk_reent+0x12>

08001836 <__swhatbuf_r>:
 8001836:	b570      	push	{r4, r5, r6, lr}
 8001838:	460e      	mov	r6, r1
 800183a:	f9b1 100e 	ldrsh.w	r1, [r1, #14]
 800183e:	2900      	cmp	r1, #0
 8001840:	b096      	sub	sp, #88	; 0x58
 8001842:	4614      	mov	r4, r2
 8001844:	461d      	mov	r5, r3
 8001846:	da07      	bge.n	8001858 <__swhatbuf_r+0x22>
 8001848:	2300      	movs	r3, #0
 800184a:	602b      	str	r3, [r5, #0]
 800184c:	89b3      	ldrh	r3, [r6, #12]
 800184e:	061a      	lsls	r2, r3, #24
 8001850:	d410      	bmi.n	8001874 <__swhatbuf_r+0x3e>
 8001852:	f44f 6380 	mov.w	r3, #1024	; 0x400
 8001856:	e00e      	b.n	8001876 <__swhatbuf_r+0x40>
 8001858:	466a      	mov	r2, sp
 800185a:	f000 fc9d 	bl	8002198 <_fstat_r>
 800185e:	2800      	cmp	r0, #0
 8001860:	dbf2      	blt.n	8001848 <__swhatbuf_r+0x12>
 8001862:	9a01      	ldr	r2, [sp, #4]
 8001864:	f402 4270 	and.w	r2, r2, #61440	; 0xf000
 8001868:	f5a2 5300 	sub.w	r3, r2, #8192	; 0x2000
 800186c:	425a      	negs	r2, r3
 800186e:	415a      	adcs	r2, r3
 8001870:	602a      	str	r2, [r5, #0]
 8001872:	e7ee      	b.n	8001852 <__swhatbuf_r+0x1c>
 8001874:	2340      	movs	r3, #64	; 0x40
 8001876:	2000      	movs	r0, #0
 8001878:	6023      	str	r3, [r4, #0]
 800187a:	b016      	add	sp, #88	; 0x58
 800187c:	bd70      	pop	{r4, r5, r6, pc}
	...

08001880 <__smakebuf_r>:
 8001880:	898b      	ldrh	r3, [r1, #12]
 8001882:	b573      	push	{r0, r1, r4, r5, r6, lr}
 8001884:	079d      	lsls	r5, r3, #30
 8001886:	4606      	mov	r6, r0
 8001888:	460c      	mov	r4, r1
 800188a:	d507      	bpl.n	800189c <__smakebuf_r+0x1c>
 800188c:	f104 0347 	add.w	r3, r4, #71	; 0x47
 8001890:	6023      	str	r3, [r4, #0]
 8001892:	6123      	str	r3, [r4, #16]
 8001894:	2301      	movs	r3, #1
 8001896:	6163      	str	r3, [r4, #20]
 8001898:	b002      	add	sp, #8
 800189a:	bd70      	pop	{r4, r5, r6, pc}
 800189c:	ab01      	add	r3, sp, #4
 800189e:	466a      	mov	r2, sp
 80018a0:	f7ff ffc9 	bl	8001836 <__swhatbuf_r>
 80018a4:	9900      	ldr	r1, [sp, #0]
 80018a6:	4605      	mov	r5, r0
 80018a8:	4630      	mov	r0, r6
 80018aa:	f000 f881 	bl	80019b0 <_malloc_r>
 80018ae:	b948      	cbnz	r0, 80018c4 <__smakebuf_r+0x44>
 80018b0:	f9b4 300c 	ldrsh.w	r3, [r4, #12]
 80018b4:	059a      	lsls	r2, r3, #22
 80018b6:	d4ef      	bmi.n	8001898 <__smakebuf_r+0x18>
 80018b8:	f023 0303 	bic.w	r3, r3, #3
 80018bc:	f043 0302 	orr.w	r3, r3, #2
 80018c0:	81a3      	strh	r3, [r4, #12]
 80018c2:	e7e3      	b.n	800188c <__smakebuf_r+0xc>
 80018c4:	4b0d      	ldr	r3, [pc, #52]	; (80018fc <__smakebuf_r+0x7c>)
 80018c6:	62b3      	str	r3, [r6, #40]	; 0x28
 80018c8:	89a3      	ldrh	r3, [r4, #12]
 80018ca:	6020      	str	r0, [r4, #0]
 80018cc:	f043 0380 	orr.w	r3, r3, #128	; 0x80
 80018d0:	81a3      	strh	r3, [r4, #12]
 80018d2:	9b00      	ldr	r3, [sp, #0]
 80018d4:	6163      	str	r3, [r4, #20]
 80018d6:	9b01      	ldr	r3, [sp, #4]
 80018d8:	6120      	str	r0, [r4, #16]
 80018da:	b15b      	cbz	r3, 80018f4 <__smakebuf_r+0x74>
 80018dc:	f9b4 100e 	ldrsh.w	r1, [r4, #14]
 80018e0:	4630      	mov	r0, r6
 80018e2:	f000 fc6b 	bl	80021bc <_isatty_r>
 80018e6:	b128      	cbz	r0, 80018f4 <__smakebuf_r+0x74>
 80018e8:	89a3      	ldrh	r3, [r4, #12]
 80018ea:	f023 0303 	bic.w	r3, r3, #3
 80018ee:	f043 0301 	orr.w	r3, r3, #1
 80018f2:	81a3      	strh	r3, [r4, #12]
 80018f4:	89a0      	ldrh	r0, [r4, #12]
 80018f6:	4305      	orrs	r5, r0
 80018f8:	81a5      	strh	r5, [r4, #12]
 80018fa:	e7cd      	b.n	8001898 <__smakebuf_r+0x18>
 80018fc:	08001695 	.word	0x08001695

08001900 <malloc>:
 8001900:	4b02      	ldr	r3, [pc, #8]	; (800190c <malloc+0xc>)
 8001902:	4601      	mov	r1, r0
 8001904:	6818      	ldr	r0, [r3, #0]
 8001906:	f000 b853 	b.w	80019b0 <_malloc_r>
 800190a:	bf00      	nop
 800190c:	2000002c 	.word	0x2000002c

08001910 <_free_r>:
 8001910:	b537      	push	{r0, r1, r2, r4, r5, lr}
 8001912:	2900      	cmp	r1, #0
 8001914:	d048      	beq.n	80019a8 <_free_r+0x98>
 8001916:	f851 3c04 	ldr.w	r3, [r1, #-4]
 800191a:	9001      	str	r0, [sp, #4]
 800191c:	2b00      	cmp	r3, #0
 800191e:	f1a1 0404 	sub.w	r4, r1, #4
 8001922:	bfb8      	it	lt
 8001924:	18e4      	addlt	r4, r4, r3
 8001926:	f000 fc6b 	bl	8002200 <__malloc_lock>
 800192a:	4a20      	ldr	r2, [pc, #128]	; (80019ac <_free_r+0x9c>)
 800192c:	9801      	ldr	r0, [sp, #4]
 800192e:	6813      	ldr	r3, [r2, #0]
 8001930:	4615      	mov	r5, r2
 8001932:	b933      	cbnz	r3, 8001942 <_free_r+0x32>
 8001934:	6063      	str	r3, [r4, #4]
 8001936:	6014      	str	r4, [r2, #0]
 8001938:	b003      	add	sp, #12
 800193a:	e8bd 4030 	ldmia.w	sp!, {r4, r5, lr}
 800193e:	f000 bc65 	b.w	800220c <__malloc_unlock>
 8001942:	42a3      	cmp	r3, r4
 8001944:	d90b      	bls.n	800195e <_free_r+0x4e>
 8001946:	6821      	ldr	r1, [r4, #0]
 8001948:	1862      	adds	r2, r4, r1
 800194a:	4293      	cmp	r3, r2
 800194c:	bf04      	itt	eq
 800194e:	681a      	ldreq	r2, [r3, #0]
 8001950:	685b      	ldreq	r3, [r3, #4]
 8001952:	6063      	str	r3, [r4, #4]
 8001954:	bf04      	itt	eq
 8001956:	1852      	addeq	r2, r2, r1
 8001958:	6022      	streq	r2, [r4, #0]
 800195a:	602c      	str	r4, [r5, #0]
 800195c:	e7ec      	b.n	8001938 <_free_r+0x28>
 800195e:	461a      	mov	r2, r3
 8001960:	685b      	ldr	r3, [r3, #4]
 8001962:	b10b      	cbz	r3, 8001968 <_free_r+0x58>
 8001964:	42a3      	cmp	r3, r4
 8001966:	d9fa      	bls.n	800195e <_free_r+0x4e>
 8001968:	6811      	ldr	r1, [r2, #0]
 800196a:	1855      	adds	r5, r2, r1
 800196c:	42a5      	cmp	r5, r4
 800196e:	d10b      	bne.n	8001988 <_free_r+0x78>
 8001970:	6824      	ldr	r4, [r4, #0]
 8001972:	4421      	add	r1, r4
 8001974:	1854      	adds	r4, r2, r1
 8001976:	42a3      	cmp	r3, r4
 8001978:	6011      	str	r1, [r2, #0]
 800197a:	d1dd      	bne.n	8001938 <_free_r+0x28>
 800197c:	681c      	ldr	r4, [r3, #0]
 800197e:	685b      	ldr	r3, [r3, #4]
 8001980:	6053      	str	r3, [r2, #4]
 8001982:	4421      	add	r1, r4
 8001984:	6011      	str	r1, [r2, #0]
 8001986:	e7d7      	b.n	8001938 <_free_r+0x28>
 8001988:	d902      	bls.n	8001990 <_free_r+0x80>
 800198a:	230c      	movs	r3, #12
 800198c:	6003      	str	r3, [r0, #0]
 800198e:	e7d3      	b.n	8001938 <_free_r+0x28>
 8001990:	6825      	ldr	r5, [r4, #0]
 8001992:	1961      	adds	r1, r4, r5
 8001994:	428b      	cmp	r3, r1
 8001996:	bf04      	itt	eq
 8001998:	6819      	ldreq	r1, [r3, #0]
 800199a:	685b      	ldreq	r3, [r3, #4]
 800199c:	6063      	str	r3, [r4, #4]
 800199e:	bf04      	itt	eq
 80019a0:	1949      	addeq	r1, r1, r5
 80019a2:	6021      	streq	r1, [r4, #0]
 80019a4:	6054      	str	r4, [r2, #4]
 80019a6:	e7c7      	b.n	8001938 <_free_r+0x28>
 80019a8:	b003      	add	sp, #12
 80019aa:	bd30      	pop	{r4, r5, pc}
 80019ac:	200001b4 	.word	0x200001b4

080019b0 <_malloc_r>:
 80019b0:	b5f8      	push	{r3, r4, r5, r6, r7, lr}
 80019b2:	1ccd      	adds	r5, r1, #3
 80019b4:	f025 0503 	bic.w	r5, r5, #3
 80019b8:	3508      	adds	r5, #8
 80019ba:	2d0c      	cmp	r5, #12
 80019bc:	bf38      	it	cc
 80019be:	250c      	movcc	r5, #12
 80019c0:	2d00      	cmp	r5, #0
 80019c2:	4606      	mov	r6, r0
 80019c4:	db01      	blt.n	80019ca <_malloc_r+0x1a>
 80019c6:	42a9      	cmp	r1, r5
 80019c8:	d903      	bls.n	80019d2 <_malloc_r+0x22>
 80019ca:	230c      	movs	r3, #12
 80019cc:	6033      	str	r3, [r6, #0]
 80019ce:	2000      	movs	r0, #0
 80019d0:	bdf8      	pop	{r3, r4, r5, r6, r7, pc}
 80019d2:	f000 fc15 	bl	8002200 <__malloc_lock>
 80019d6:	4921      	ldr	r1, [pc, #132]	; (8001a5c <_malloc_r+0xac>)
 80019d8:	680a      	ldr	r2, [r1, #0]
 80019da:	4614      	mov	r4, r2
 80019dc:	b99c      	cbnz	r4, 8001a06 <_malloc_r+0x56>
 80019de:	4f20      	ldr	r7, [pc, #128]	; (8001a60 <_malloc_r+0xb0>)
 80019e0:	683b      	ldr	r3, [r7, #0]
 80019e2:	b923      	cbnz	r3, 80019ee <_malloc_r+0x3e>
 80019e4:	4621      	mov	r1, r4
 80019e6:	4630      	mov	r0, r6
 80019e8:	f000 fb72 	bl	80020d0 <_sbrk_r>
 80019ec:	6038      	str	r0, [r7, #0]
 80019ee:	4629      	mov	r1, r5
 80019f0:	4630      	mov	r0, r6
 80019f2:	f000 fb6d 	bl	80020d0 <_sbrk_r>
 80019f6:	1c43      	adds	r3, r0, #1
 80019f8:	d123      	bne.n	8001a42 <_malloc_r+0x92>
 80019fa:	230c      	movs	r3, #12
 80019fc:	6033      	str	r3, [r6, #0]
 80019fe:	4630      	mov	r0, r6
 8001a00:	f000 fc04 	bl	800220c <__malloc_unlock>
 8001a04:	e7e3      	b.n	80019ce <_malloc_r+0x1e>
 8001a06:	6823      	ldr	r3, [r4, #0]
 8001a08:	1b5b      	subs	r3, r3, r5
 8001a0a:	d417      	bmi.n	8001a3c <_malloc_r+0x8c>
 8001a0c:	2b0b      	cmp	r3, #11
 8001a0e:	d903      	bls.n	8001a18 <_malloc_r+0x68>
 8001a10:	6023      	str	r3, [r4, #0]
 8001a12:	441c      	add	r4, r3
 8001a14:	6025      	str	r5, [r4, #0]
 8001a16:	e004      	b.n	8001a22 <_malloc_r+0x72>
 8001a18:	6863      	ldr	r3, [r4, #4]
 8001a1a:	42a2      	cmp	r2, r4
 8001a1c:	bf0c      	ite	eq
 8001a1e:	600b      	streq	r3, [r1, #0]
 8001a20:	6053      	strne	r3, [r2, #4]
 8001a22:	4630      	mov	r0, r6
 8001a24:	f000 fbf2 	bl	800220c <__malloc_unlock>
 8001a28:	f104 000b 	add.w	r0, r4, #11
 8001a2c:	1d23      	adds	r3, r4, #4
 8001a2e:	f020 0007 	bic.w	r0, r0, #7
 8001a32:	1ac2      	subs	r2, r0, r3
 8001a34:	d0cc      	beq.n	80019d0 <_malloc_r+0x20>
 8001a36:	1a1b      	subs	r3, r3, r0
 8001a38:	50a3      	str	r3, [r4, r2]
 8001a3a:	e7c9      	b.n	80019d0 <_malloc_r+0x20>
 8001a3c:	4622      	mov	r2, r4
 8001a3e:	6864      	ldr	r4, [r4, #4]
 8001a40:	e7cc      	b.n	80019dc <_malloc_r+0x2c>
 8001a42:	1cc4      	adds	r4, r0, #3
 8001a44:	f024 0403 	bic.w	r4, r4, #3
 8001a48:	42a0      	cmp	r0, r4
 8001a4a:	d0e3      	beq.n	8001a14 <_malloc_r+0x64>
 8001a4c:	1a21      	subs	r1, r4, r0
 8001a4e:	4630      	mov	r0, r6
 8001a50:	f000 fb3e 	bl	80020d0 <_sbrk_r>
 8001a54:	3001      	adds	r0, #1
 8001a56:	d1dd      	bne.n	8001a14 <_malloc_r+0x64>
 8001a58:	e7cf      	b.n	80019fa <_malloc_r+0x4a>
 8001a5a:	bf00      	nop
 8001a5c:	200001b4 	.word	0x200001b4
 8001a60:	200001b8 	.word	0x200001b8

08001a64 <__sfputc_r>:
 8001a64:	6893      	ldr	r3, [r2, #8]
 8001a66:	3b01      	subs	r3, #1
 8001a68:	2b00      	cmp	r3, #0
 8001a6a:	b410      	push	{r4}
 8001a6c:	6093      	str	r3, [r2, #8]
 8001a6e:	da08      	bge.n	8001a82 <__sfputc_r+0x1e>
 8001a70:	6994      	ldr	r4, [r2, #24]
 8001a72:	42a3      	cmp	r3, r4
 8001a74:	db01      	blt.n	8001a7a <__sfputc_r+0x16>
 8001a76:	290a      	cmp	r1, #10
 8001a78:	d103      	bne.n	8001a82 <__sfputc_r+0x1e>
 8001a7a:	f85d 4b04 	ldr.w	r4, [sp], #4
 8001a7e:	f7ff bc63 	b.w	8001348 <__swbuf_r>
 8001a82:	6813      	ldr	r3, [r2, #0]
 8001a84:	1c58      	adds	r0, r3, #1
 8001a86:	6010      	str	r0, [r2, #0]
 8001a88:	7019      	strb	r1, [r3, #0]
 8001a8a:	4608      	mov	r0, r1
 8001a8c:	f85d 4b04 	ldr.w	r4, [sp], #4
 8001a90:	4770      	bx	lr

08001a92 <__sfputs_r>:
 8001a92:	b5f8      	push	{r3, r4, r5, r6, r7, lr}
 8001a94:	4606      	mov	r6, r0
 8001a96:	460f      	mov	r7, r1
 8001a98:	4614      	mov	r4, r2
 8001a9a:	18d5      	adds	r5, r2, r3
 8001a9c:	42ac      	cmp	r4, r5
 8001a9e:	d101      	bne.n	8001aa4 <__sfputs_r+0x12>
 8001aa0:	2000      	movs	r0, #0
 8001aa2:	e007      	b.n	8001ab4 <__sfputs_r+0x22>
 8001aa4:	f814 1b01 	ldrb.w	r1, [r4], #1
 8001aa8:	463a      	mov	r2, r7
 8001aaa:	4630      	mov	r0, r6
 8001aac:	f7ff ffda 	bl	8001a64 <__sfputc_r>
 8001ab0:	1c43      	adds	r3, r0, #1
 8001ab2:	d1f3      	bne.n	8001a9c <__sfputs_r+0xa>
 8001ab4:	bdf8      	pop	{r3, r4, r5, r6, r7, pc}
	...

08001ab8 <_vfiprintf_r>:
 8001ab8:	e92d 4ff0 	stmdb	sp!, {r4, r5, r6, r7, r8, r9, sl, fp, lr}
 8001abc:	460d      	mov	r5, r1
 8001abe:	b09d      	sub	sp, #116	; 0x74
 8001ac0:	4614      	mov	r4, r2
 8001ac2:	4698      	mov	r8, r3
 8001ac4:	4606      	mov	r6, r0
 8001ac6:	b118      	cbz	r0, 8001ad0 <_vfiprintf_r+0x18>
 8001ac8:	6983      	ldr	r3, [r0, #24]
 8001aca:	b90b      	cbnz	r3, 8001ad0 <_vfiprintf_r+0x18>
 8001acc:	f7ff fe16 	bl	80016fc <__sinit>
 8001ad0:	4b89      	ldr	r3, [pc, #548]	; (8001cf8 <_vfiprintf_r+0x240>)
 8001ad2:	429d      	cmp	r5, r3
 8001ad4:	d11b      	bne.n	8001b0e <_vfiprintf_r+0x56>
 8001ad6:	6875      	ldr	r5, [r6, #4]
 8001ad8:	6e6b      	ldr	r3, [r5, #100]	; 0x64
 8001ada:	07d9      	lsls	r1, r3, #31
 8001adc:	d405      	bmi.n	8001aea <_vfiprintf_r+0x32>
 8001ade:	89ab      	ldrh	r3, [r5, #12]
 8001ae0:	059a      	lsls	r2, r3, #22
 8001ae2:	d402      	bmi.n	8001aea <_vfiprintf_r+0x32>
 8001ae4:	6da8      	ldr	r0, [r5, #88]	; 0x58
 8001ae6:	f7ff fb28 	bl	800113a <__retarget_lock_acquire_recursive>
 8001aea:	89ab      	ldrh	r3, [r5, #12]
 8001aec:	071b      	lsls	r3, r3, #28
 8001aee:	d501      	bpl.n	8001af4 <_vfiprintf_r+0x3c>
 8001af0:	692b      	ldr	r3, [r5, #16]
 8001af2:	b9eb      	cbnz	r3, 8001b30 <_vfiprintf_r+0x78>
 8001af4:	4629      	mov	r1, r5
 8001af6:	4630      	mov	r0, r6
 8001af8:	f7ff fc78 	bl	80013ec <__swsetup_r>
 8001afc:	b1c0      	cbz	r0, 8001b30 <_vfiprintf_r+0x78>
 8001afe:	6e6b      	ldr	r3, [r5, #100]	; 0x64
 8001b00:	07dc      	lsls	r4, r3, #31
 8001b02:	d50e      	bpl.n	8001b22 <_vfiprintf_r+0x6a>
 8001b04:	f04f 30ff 	mov.w	r0, #4294967295	; 0xffffffff
 8001b08:	b01d      	add	sp, #116	; 0x74
 8001b0a:	e8bd 8ff0 	ldmia.w	sp!, {r4, r5, r6, r7, r8, r9, sl, fp, pc}
 8001b0e:	4b7b      	ldr	r3, [pc, #492]	; (8001cfc <_vfiprintf_r+0x244>)
 8001b10:	429d      	cmp	r5, r3
 8001b12:	d101      	bne.n	8001b18 <_vfiprintf_r+0x60>
 8001b14:	68b5      	ldr	r5, [r6, #8]
 8001b16:	e7df      	b.n	8001ad8 <_vfiprintf_r+0x20>
 8001b18:	4b79      	ldr	r3, [pc, #484]	; (8001d00 <_vfiprintf_r+0x248>)
 8001b1a:	429d      	cmp	r5, r3
 8001b1c:	bf08      	it	eq
 8001b1e:	68f5      	ldreq	r5, [r6, #12]
 8001b20:	e7da      	b.n	8001ad8 <_vfiprintf_r+0x20>
 8001b22:	89ab      	ldrh	r3, [r5, #12]
 8001b24:	0598      	lsls	r0, r3, #22
 8001b26:	d4ed      	bmi.n	8001b04 <_vfiprintf_r+0x4c>
 8001b28:	6da8      	ldr	r0, [r5, #88]	; 0x58
 8001b2a:	f7ff fb07 	bl	800113c <__retarget_lock_release_recursive>
 8001b2e:	e7e9      	b.n	8001b04 <_vfiprintf_r+0x4c>
 8001b30:	2300      	movs	r3, #0
 8001b32:	9309      	str	r3, [sp, #36]	; 0x24
 8001b34:	2320      	movs	r3, #32
 8001b36:	f88d 3029 	strb.w	r3, [sp, #41]	; 0x29
 8001b3a:	f8cd 800c 	str.w	r8, [sp, #12]
 8001b3e:	2330      	movs	r3, #48	; 0x30
 8001b40:	f8df 81c0 	ldr.w	r8, [pc, #448]	; 8001d04 <_vfiprintf_r+0x24c>
 8001b44:	f88d 302a 	strb.w	r3, [sp, #42]	; 0x2a
 8001b48:	f04f 0901 	mov.w	r9, #1
 8001b4c:	4623      	mov	r3, r4
 8001b4e:	469a      	mov	sl, r3
 8001b50:	f813 2b01 	ldrb.w	r2, [r3], #1
 8001b54:	b10a      	cbz	r2, 8001b5a <_vfiprintf_r+0xa2>
 8001b56:	2a25      	cmp	r2, #37	; 0x25
 8001b58:	d1f9      	bne.n	8001b4e <_vfiprintf_r+0x96>
 8001b5a:	ebba 0b04 	subs.w	fp, sl, r4
 8001b5e:	d00b      	beq.n	8001b78 <_vfiprintf_r+0xc0>
 8001b60:	465b      	mov	r3, fp
 8001b62:	4622      	mov	r2, r4
 8001b64:	4629      	mov	r1, r5
 8001b66:	4630      	mov	r0, r6
 8001b68:	f7ff ff93 	bl	8001a92 <__sfputs_r>
 8001b6c:	3001      	adds	r0, #1
 8001b6e:	f000 80aa 	beq.w	8001cc6 <_vfiprintf_r+0x20e>
 8001b72:	9a09      	ldr	r2, [sp, #36]	; 0x24
 8001b74:	445a      	add	r2, fp
 8001b76:	9209      	str	r2, [sp, #36]	; 0x24
 8001b78:	f89a 3000 	ldrb.w	r3, [sl]
 8001b7c:	2b00      	cmp	r3, #0
 8001b7e:	f000 80a2 	beq.w	8001cc6 <_vfiprintf_r+0x20e>
 8001b82:	2300      	movs	r3, #0
 8001b84:	f04f 32ff 	mov.w	r2, #4294967295	; 0xffffffff
 8001b88:	e9cd 2305 	strd	r2, r3, [sp, #20]
 8001b8c:	f10a 0a01 	add.w	sl, sl, #1
 8001b90:	9304      	str	r3, [sp, #16]
 8001b92:	9307      	str	r3, [sp, #28]
 8001b94:	f88d 3053 	strb.w	r3, [sp, #83]	; 0x53
 8001b98:	931a      	str	r3, [sp, #104]	; 0x68
 8001b9a:	4654      	mov	r4, sl
 8001b9c:	2205      	movs	r2, #5
 8001b9e:	f814 1b01 	ldrb.w	r1, [r4], #1
 8001ba2:	4858      	ldr	r0, [pc, #352]	; (8001d04 <_vfiprintf_r+0x24c>)
 8001ba4:	f7fe fb14 	bl	80001d0 <memchr>
 8001ba8:	9a04      	ldr	r2, [sp, #16]
 8001baa:	b9d8      	cbnz	r0, 8001be4 <_vfiprintf_r+0x12c>
 8001bac:	06d1      	lsls	r1, r2, #27
 8001bae:	bf44      	itt	mi
 8001bb0:	2320      	movmi	r3, #32
 8001bb2:	f88d 3053 	strbmi.w	r3, [sp, #83]	; 0x53
 8001bb6:	0713      	lsls	r3, r2, #28
 8001bb8:	bf44      	itt	mi
 8001bba:	232b      	movmi	r3, #43	; 0x2b
 8001bbc:	f88d 3053 	strbmi.w	r3, [sp, #83]	; 0x53
 8001bc0:	f89a 3000 	ldrb.w	r3, [sl]
 8001bc4:	2b2a      	cmp	r3, #42	; 0x2a
 8001bc6:	d015      	beq.n	8001bf4 <_vfiprintf_r+0x13c>
 8001bc8:	9a07      	ldr	r2, [sp, #28]
 8001bca:	4654      	mov	r4, sl
 8001bcc:	2000      	movs	r0, #0
 8001bce:	f04f 0c0a 	mov.w	ip, #10
 8001bd2:	4621      	mov	r1, r4
 8001bd4:	f811 3b01 	ldrb.w	r3, [r1], #1
 8001bd8:	3b30      	subs	r3, #48	; 0x30
 8001bda:	2b09      	cmp	r3, #9
 8001bdc:	d94e      	bls.n	8001c7c <_vfiprintf_r+0x1c4>
 8001bde:	b1b0      	cbz	r0, 8001c0e <_vfiprintf_r+0x156>
 8001be0:	9207      	str	r2, [sp, #28]
 8001be2:	e014      	b.n	8001c0e <_vfiprintf_r+0x156>
 8001be4:	eba0 0308 	sub.w	r3, r0, r8
 8001be8:	fa09 f303 	lsl.w	r3, r9, r3
 8001bec:	4313      	orrs	r3, r2
 8001bee:	9304      	str	r3, [sp, #16]
 8001bf0:	46a2      	mov	sl, r4
 8001bf2:	e7d2      	b.n	8001b9a <_vfiprintf_r+0xe2>
 8001bf4:	9b03      	ldr	r3, [sp, #12]
 8001bf6:	1d19      	adds	r1, r3, #4
 8001bf8:	681b      	ldr	r3, [r3, #0]
 8001bfa:	9103      	str	r1, [sp, #12]
 8001bfc:	2b00      	cmp	r3, #0
 8001bfe:	bfbb      	ittet	lt
 8001c00:	425b      	neglt	r3, r3
 8001c02:	f042 0202 	orrlt.w	r2, r2, #2
 8001c06:	9307      	strge	r3, [sp, #28]
 8001c08:	9307      	strlt	r3, [sp, #28]
 8001c0a:	bfb8      	it	lt
 8001c0c:	9204      	strlt	r2, [sp, #16]
 8001c0e:	7823      	ldrb	r3, [r4, #0]
 8001c10:	2b2e      	cmp	r3, #46	; 0x2e
 8001c12:	d10c      	bne.n	8001c2e <_vfiprintf_r+0x176>
 8001c14:	7863      	ldrb	r3, [r4, #1]
 8001c16:	2b2a      	cmp	r3, #42	; 0x2a
 8001c18:	d135      	bne.n	8001c86 <_vfiprintf_r+0x1ce>
 8001c1a:	9b03      	ldr	r3, [sp, #12]
 8001c1c:	1d1a      	adds	r2, r3, #4
 8001c1e:	681b      	ldr	r3, [r3, #0]
 8001c20:	9203      	str	r2, [sp, #12]
 8001c22:	2b00      	cmp	r3, #0
 8001c24:	bfb8      	it	lt
 8001c26:	f04f 33ff 	movlt.w	r3, #4294967295	; 0xffffffff
 8001c2a:	3402      	adds	r4, #2
 8001c2c:	9305      	str	r3, [sp, #20]
 8001c2e:	f8df a0e4 	ldr.w	sl, [pc, #228]	; 8001d14 <_vfiprintf_r+0x25c>
 8001c32:	7821      	ldrb	r1, [r4, #0]
 8001c34:	2203      	movs	r2, #3
 8001c36:	4650      	mov	r0, sl
 8001c38:	f7fe faca 	bl	80001d0 <memchr>
 8001c3c:	b140      	cbz	r0, 8001c50 <_vfiprintf_r+0x198>
 8001c3e:	2340      	movs	r3, #64	; 0x40
 8001c40:	eba0 000a 	sub.w	r0, r0, sl
 8001c44:	fa03 f000 	lsl.w	r0, r3, r0
 8001c48:	9b04      	ldr	r3, [sp, #16]
 8001c4a:	4303      	orrs	r3, r0
 8001c4c:	3401      	adds	r4, #1
 8001c4e:	9304      	str	r3, [sp, #16]
 8001c50:	f814 1b01 	ldrb.w	r1, [r4], #1
 8001c54:	482c      	ldr	r0, [pc, #176]	; (8001d08 <_vfiprintf_r+0x250>)
 8001c56:	f88d 1028 	strb.w	r1, [sp, #40]	; 0x28
 8001c5a:	2206      	movs	r2, #6
 8001c5c:	f7fe fab8 	bl	80001d0 <memchr>
 8001c60:	2800      	cmp	r0, #0
 8001c62:	d03f      	beq.n	8001ce4 <_vfiprintf_r+0x22c>
 8001c64:	4b29      	ldr	r3, [pc, #164]	; (8001d0c <_vfiprintf_r+0x254>)
 8001c66:	bb1b      	cbnz	r3, 8001cb0 <_vfiprintf_r+0x1f8>
 8001c68:	9b03      	ldr	r3, [sp, #12]
 8001c6a:	3307      	adds	r3, #7
 8001c6c:	f023 0307 	bic.w	r3, r3, #7
 8001c70:	3308      	adds	r3, #8
 8001c72:	9303      	str	r3, [sp, #12]
 8001c74:	9b09      	ldr	r3, [sp, #36]	; 0x24
 8001c76:	443b      	add	r3, r7
 8001c78:	9309      	str	r3, [sp, #36]	; 0x24
 8001c7a:	e767      	b.n	8001b4c <_vfiprintf_r+0x94>
 8001c7c:	fb0c 3202 	mla	r2, ip, r2, r3
 8001c80:	460c      	mov	r4, r1
 8001c82:	2001      	movs	r0, #1
 8001c84:	e7a5      	b.n	8001bd2 <_vfiprintf_r+0x11a>
 8001c86:	2300      	movs	r3, #0
 8001c88:	3401      	adds	r4, #1
 8001c8a:	9305      	str	r3, [sp, #20]
 8001c8c:	4619      	mov	r1, r3
 8001c8e:	f04f 0c0a 	mov.w	ip, #10
 8001c92:	4620      	mov	r0, r4
 8001c94:	f810 2b01 	ldrb.w	r2, [r0], #1
 8001c98:	3a30      	subs	r2, #48	; 0x30
 8001c9a:	2a09      	cmp	r2, #9
 8001c9c:	d903      	bls.n	8001ca6 <_vfiprintf_r+0x1ee>
 8001c9e:	2b00      	cmp	r3, #0
 8001ca0:	d0c5      	beq.n	8001c2e <_vfiprintf_r+0x176>
 8001ca2:	9105      	str	r1, [sp, #20]
 8001ca4:	e7c3      	b.n	8001c2e <_vfiprintf_r+0x176>
 8001ca6:	fb0c 2101 	mla	r1, ip, r1, r2
 8001caa:	4604      	mov	r4, r0
 8001cac:	2301      	movs	r3, #1
 8001cae:	e7f0      	b.n	8001c92 <_vfiprintf_r+0x1da>
 8001cb0:	ab03      	add	r3, sp, #12
 8001cb2:	9300      	str	r3, [sp, #0]
 8001cb4:	462a      	mov	r2, r5
 8001cb6:	4b16      	ldr	r3, [pc, #88]	; (8001d10 <_vfiprintf_r+0x258>)
 8001cb8:	a904      	add	r1, sp, #16
 8001cba:	4630      	mov	r0, r6
 8001cbc:	f3af 8000 	nop.w
 8001cc0:	4607      	mov	r7, r0
 8001cc2:	1c78      	adds	r0, r7, #1
 8001cc4:	d1d6      	bne.n	8001c74 <_vfiprintf_r+0x1bc>
 8001cc6:	6e6b      	ldr	r3, [r5, #100]	; 0x64
 8001cc8:	07d9      	lsls	r1, r3, #31
 8001cca:	d405      	bmi.n	8001cd8 <_vfiprintf_r+0x220>
 8001ccc:	89ab      	ldrh	r3, [r5, #12]
 8001cce:	059a      	lsls	r2, r3, #22
 8001cd0:	d402      	bmi.n	8001cd8 <_vfiprintf_r+0x220>
 8001cd2:	6da8      	ldr	r0, [r5, #88]	; 0x58
 8001cd4:	f7ff fa32 	bl	800113c <__retarget_lock_release_recursive>
 8001cd8:	89ab      	ldrh	r3, [r5, #12]
 8001cda:	065b      	lsls	r3, r3, #25
 8001cdc:	f53f af12 	bmi.w	8001b04 <_vfiprintf_r+0x4c>
 8001ce0:	9809      	ldr	r0, [sp, #36]	; 0x24
 8001ce2:	e711      	b.n	8001b08 <_vfiprintf_r+0x50>
 8001ce4:	ab03      	add	r3, sp, #12
 8001ce6:	9300      	str	r3, [sp, #0]
 8001ce8:	462a      	mov	r2, r5
 8001cea:	4b09      	ldr	r3, [pc, #36]	; (8001d10 <_vfiprintf_r+0x258>)
 8001cec:	a904      	add	r1, sp, #16
 8001cee:	4630      	mov	r0, r6
 8001cf0:	f000 f880 	bl	8001df4 <_printf_i>
 8001cf4:	e7e4      	b.n	8001cc0 <_vfiprintf_r+0x208>
 8001cf6:	bf00      	nop
 8001cf8:	08002318 	.word	0x08002318
 8001cfc:	08002338 	.word	0x08002338
 8001d00:	080022f8 	.word	0x080022f8
 8001d04:	08002358 	.word	0x08002358
 8001d08:	08002362 	.word	0x08002362
 8001d0c:	00000000 	.word	0x00000000
 8001d10:	08001a93 	.word	0x08001a93
 8001d14:	0800235e 	.word	0x0800235e

08001d18 <_printf_common>:
 8001d18:	e92d 47f0 	stmdb	sp!, {r4, r5, r6, r7, r8, r9, sl, lr}
 8001d1c:	4616      	mov	r6, r2
 8001d1e:	4699      	mov	r9, r3
 8001d20:	688a      	ldr	r2, [r1, #8]
 8001d22:	690b      	ldr	r3, [r1, #16]
 8001d24:	f8dd 8020 	ldr.w	r8, [sp, #32]
 8001d28:	4293      	cmp	r3, r2
 8001d2a:	bfb8      	it	lt
 8001d2c:	4613      	movlt	r3, r2
 8001d2e:	6033      	str	r3, [r6, #0]
 8001d30:	f891 2043 	ldrb.w	r2, [r1, #67]	; 0x43
 8001d34:	4607      	mov	r7, r0
 8001d36:	460c      	mov	r4, r1
 8001d38:	b10a      	cbz	r2, 8001d3e <_printf_common+0x26>
 8001d3a:	3301      	adds	r3, #1
 8001d3c:	6033      	str	r3, [r6, #0]
 8001d3e:	6823      	ldr	r3, [r4, #0]
 8001d40:	0699      	lsls	r1, r3, #26
 8001d42:	bf42      	ittt	mi
 8001d44:	6833      	ldrmi	r3, [r6, #0]
 8001d46:	3302      	addmi	r3, #2
 8001d48:	6033      	strmi	r3, [r6, #0]
 8001d4a:	6825      	ldr	r5, [r4, #0]
 8001d4c:	f015 0506 	ands.w	r5, r5, #6
 8001d50:	d106      	bne.n	8001d60 <_printf_common+0x48>
 8001d52:	f104 0a19 	add.w	sl, r4, #25
 8001d56:	68e3      	ldr	r3, [r4, #12]
 8001d58:	6832      	ldr	r2, [r6, #0]
 8001d5a:	1a9b      	subs	r3, r3, r2
 8001d5c:	42ab      	cmp	r3, r5
 8001d5e:	dc26      	bgt.n	8001dae <_printf_common+0x96>
 8001d60:	f894 2043 	ldrb.w	r2, [r4, #67]	; 0x43
 8001d64:	1e13      	subs	r3, r2, #0
 8001d66:	6822      	ldr	r2, [r4, #0]
 8001d68:	bf18      	it	ne
 8001d6a:	2301      	movne	r3, #1
 8001d6c:	0692      	lsls	r2, r2, #26
 8001d6e:	d42b      	bmi.n	8001dc8 <_printf_common+0xb0>
 8001d70:	f104 0243 	add.w	r2, r4, #67	; 0x43
 8001d74:	4649      	mov	r1, r9
 8001d76:	4638      	mov	r0, r7
 8001d78:	47c0      	blx	r8
 8001d7a:	3001      	adds	r0, #1
 8001d7c:	d01e      	beq.n	8001dbc <_printf_common+0xa4>
 8001d7e:	6823      	ldr	r3, [r4, #0]
 8001d80:	68e5      	ldr	r5, [r4, #12]
 8001d82:	6832      	ldr	r2, [r6, #0]
 8001d84:	f003 0306 	and.w	r3, r3, #6
 8001d88:	2b04      	cmp	r3, #4
 8001d8a:	bf08      	it	eq
 8001d8c:	1aad      	subeq	r5, r5, r2
 8001d8e:	68a3      	ldr	r3, [r4, #8]
 8001d90:	6922      	ldr	r2, [r4, #16]
 8001d92:	bf0c      	ite	eq
 8001d94:	ea25 75e5 	biceq.w	r5, r5, r5, asr #31
 8001d98:	2500      	movne	r5, #0
 8001d9a:	4293      	cmp	r3, r2
 8001d9c:	bfc4      	itt	gt
 8001d9e:	1a9b      	subgt	r3, r3, r2
 8001da0:	18ed      	addgt	r5, r5, r3
 8001da2:	2600      	movs	r6, #0
 8001da4:	341a      	adds	r4, #26
 8001da6:	42b5      	cmp	r5, r6
 8001da8:	d11a      	bne.n	8001de0 <_printf_common+0xc8>
 8001daa:	2000      	movs	r0, #0
 8001dac:	e008      	b.n	8001dc0 <_printf_common+0xa8>
 8001dae:	2301      	movs	r3, #1
 8001db0:	4652      	mov	r2, sl
 8001db2:	4649      	mov	r1, r9
 8001db4:	4638      	mov	r0, r7
 8001db6:	47c0      	blx	r8
 8001db8:	3001      	adds	r0, #1
 8001dba:	d103      	bne.n	8001dc4 <_printf_common+0xac>
 8001dbc:	f04f 30ff 	mov.w	r0, #4294967295	; 0xffffffff
 8001dc0:	e8bd 87f0 	ldmia.w	sp!, {r4, r5, r6, r7, r8, r9, sl, pc}
 8001dc4:	3501      	adds	r5, #1
 8001dc6:	e7c6      	b.n	8001d56 <_printf_common+0x3e>
 8001dc8:	18e1      	adds	r1, r4, r3
 8001dca:	1c5a      	adds	r2, r3, #1
 8001dcc:	2030      	movs	r0, #48	; 0x30
 8001dce:	f881 0043 	strb.w	r0, [r1, #67]	; 0x43
 8001dd2:	4422      	add	r2, r4
 8001dd4:	f894 1045 	ldrb.w	r1, [r4, #69]	; 0x45
 8001dd8:	f882 1043 	strb.w	r1, [r2, #67]	; 0x43
 8001ddc:	3302      	adds	r3, #2
 8001dde:	e7c7      	b.n	8001d70 <_printf_common+0x58>
 8001de0:	2301      	movs	r3, #1
 8001de2:	4622      	mov	r2, r4
 8001de4:	4649      	mov	r1, r9
 8001de6:	4638      	mov	r0, r7
 8001de8:	47c0      	blx	r8
 8001dea:	3001      	adds	r0, #1
 8001dec:	d0e6      	beq.n	8001dbc <_printf_common+0xa4>
 8001dee:	3601      	adds	r6, #1
 8001df0:	e7d9      	b.n	8001da6 <_printf_common+0x8e>
	...

08001df4 <_printf_i>:
 8001df4:	e92d 47ff 	stmdb	sp!, {r0, r1, r2, r3, r4, r5, r6, r7, r8, r9, sl, lr}
 8001df8:	460c      	mov	r4, r1
 8001dfa:	4691      	mov	r9, r2
 8001dfc:	7e27      	ldrb	r7, [r4, #24]
 8001dfe:	990c      	ldr	r1, [sp, #48]	; 0x30
 8001e00:	2f78      	cmp	r7, #120	; 0x78
 8001e02:	4680      	mov	r8, r0
 8001e04:	469a      	mov	sl, r3
 8001e06:	f104 0243 	add.w	r2, r4, #67	; 0x43
 8001e0a:	d807      	bhi.n	8001e1c <_printf_i+0x28>
 8001e0c:	2f62      	cmp	r7, #98	; 0x62
 8001e0e:	d80a      	bhi.n	8001e26 <_printf_i+0x32>
 8001e10:	2f00      	cmp	r7, #0
 8001e12:	f000 80d8 	beq.w	8001fc6 <_printf_i+0x1d2>
 8001e16:	2f58      	cmp	r7, #88	; 0x58
 8001e18:	f000 80a3 	beq.w	8001f62 <_printf_i+0x16e>
 8001e1c:	f104 0642 	add.w	r6, r4, #66	; 0x42
 8001e20:	f884 7042 	strb.w	r7, [r4, #66]	; 0x42
 8001e24:	e03a      	b.n	8001e9c <_printf_i+0xa8>
 8001e26:	f1a7 0363 	sub.w	r3, r7, #99	; 0x63
 8001e2a:	2b15      	cmp	r3, #21
 8001e2c:	d8f6      	bhi.n	8001e1c <_printf_i+0x28>
 8001e2e:	a001      	add	r0, pc, #4	; (adr r0, 8001e34 <_printf_i+0x40>)
 8001e30:	f850 f023 	ldr.w	pc, [r0, r3, lsl #2]
 8001e34:	08001e8d 	.word	0x08001e8d
 8001e38:	08001ea1 	.word	0x08001ea1
 8001e3c:	08001e1d 	.word	0x08001e1d
 8001e40:	08001e1d 	.word	0x08001e1d
 8001e44:	08001e1d 	.word	0x08001e1d
 8001e48:	08001e1d 	.word	0x08001e1d
 8001e4c:	08001ea1 	.word	0x08001ea1
 8001e50:	08001e1d 	.word	0x08001e1d
 8001e54:	08001e1d 	.word	0x08001e1d
 8001e58:	08001e1d 	.word	0x08001e1d
 8001e5c:	08001e1d 	.word	0x08001e1d
 8001e60:	08001fad 	.word	0x08001fad
 8001e64:	08001ed1 	.word	0x08001ed1
 8001e68:	08001f8f 	.word	0x08001f8f
 8001e6c:	08001e1d 	.word	0x08001e1d
 8001e70:	08001e1d 	.word	0x08001e1d
 8001e74:	08001fcf 	.word	0x08001fcf
 8001e78:	08001e1d 	.word	0x08001e1d
 8001e7c:	08001ed1 	.word	0x08001ed1
 8001e80:	08001e1d 	.word	0x08001e1d
 8001e84:	08001e1d 	.word	0x08001e1d
 8001e88:	08001f97 	.word	0x08001f97
 8001e8c:	680b      	ldr	r3, [r1, #0]
 8001e8e:	1d1a      	adds	r2, r3, #4
 8001e90:	681b      	ldr	r3, [r3, #0]
 8001e92:	600a      	str	r2, [r1, #0]
 8001e94:	f104 0642 	add.w	r6, r4, #66	; 0x42
 8001e98:	f884 3042 	strb.w	r3, [r4, #66]	; 0x42
 8001e9c:	2301      	movs	r3, #1
 8001e9e:	e0a3      	b.n	8001fe8 <_printf_i+0x1f4>
 8001ea0:	6825      	ldr	r5, [r4, #0]
 8001ea2:	6808      	ldr	r0, [r1, #0]
 8001ea4:	062e      	lsls	r6, r5, #24
 8001ea6:	f100 0304 	add.w	r3, r0, #4
 8001eaa:	d50a      	bpl.n	8001ec2 <_printf_i+0xce>
 8001eac:	6805      	ldr	r5, [r0, #0]
 8001eae:	600b      	str	r3, [r1, #0]
 8001eb0:	2d00      	cmp	r5, #0
 8001eb2:	da03      	bge.n	8001ebc <_printf_i+0xc8>
 8001eb4:	232d      	movs	r3, #45	; 0x2d
 8001eb6:	426d      	negs	r5, r5
 8001eb8:	f884 3043 	strb.w	r3, [r4, #67]	; 0x43
 8001ebc:	485e      	ldr	r0, [pc, #376]	; (8002038 <_printf_i+0x244>)
 8001ebe:	230a      	movs	r3, #10
 8001ec0:	e019      	b.n	8001ef6 <_printf_i+0x102>
 8001ec2:	f015 0f40 	tst.w	r5, #64	; 0x40
 8001ec6:	6805      	ldr	r5, [r0, #0]
 8001ec8:	600b      	str	r3, [r1, #0]
 8001eca:	bf18      	it	ne
 8001ecc:	b22d      	sxthne	r5, r5
 8001ece:	e7ef      	b.n	8001eb0 <_printf_i+0xbc>
 8001ed0:	680b      	ldr	r3, [r1, #0]
 8001ed2:	6825      	ldr	r5, [r4, #0]
 8001ed4:	1d18      	adds	r0, r3, #4
 8001ed6:	6008      	str	r0, [r1, #0]
 8001ed8:	0628      	lsls	r0, r5, #24
 8001eda:	d501      	bpl.n	8001ee0 <_printf_i+0xec>
 8001edc:	681d      	ldr	r5, [r3, #0]
 8001ede:	e002      	b.n	8001ee6 <_printf_i+0xf2>
 8001ee0:	0669      	lsls	r1, r5, #25
 8001ee2:	d5fb      	bpl.n	8001edc <_printf_i+0xe8>
 8001ee4:	881d      	ldrh	r5, [r3, #0]
 8001ee6:	4854      	ldr	r0, [pc, #336]	; (8002038 <_printf_i+0x244>)
 8001ee8:	2f6f      	cmp	r7, #111	; 0x6f
 8001eea:	bf0c      	ite	eq
 8001eec:	2308      	moveq	r3, #8
 8001eee:	230a      	movne	r3, #10
 8001ef0:	2100      	movs	r1, #0
 8001ef2:	f884 1043 	strb.w	r1, [r4, #67]	; 0x43
 8001ef6:	6866      	ldr	r6, [r4, #4]
 8001ef8:	60a6      	str	r6, [r4, #8]
 8001efa:	2e00      	cmp	r6, #0
 8001efc:	bfa2      	ittt	ge
 8001efe:	6821      	ldrge	r1, [r4, #0]
 8001f00:	f021 0104 	bicge.w	r1, r1, #4
 8001f04:	6021      	strge	r1, [r4, #0]
 8001f06:	b90d      	cbnz	r5, 8001f0c <_printf_i+0x118>
 8001f08:	2e00      	cmp	r6, #0
 8001f0a:	d04d      	beq.n	8001fa8 <_printf_i+0x1b4>
 8001f0c:	4616      	mov	r6, r2
 8001f0e:	fbb5 f1f3 	udiv	r1, r5, r3
 8001f12:	fb03 5711 	mls	r7, r3, r1, r5
 8001f16:	5dc7      	ldrb	r7, [r0, r7]
 8001f18:	f806 7d01 	strb.w	r7, [r6, #-1]!
 8001f1c:	462f      	mov	r7, r5
 8001f1e:	42bb      	cmp	r3, r7
 8001f20:	460d      	mov	r5, r1
 8001f22:	d9f4      	bls.n	8001f0e <_printf_i+0x11a>
 8001f24:	2b08      	cmp	r3, #8
 8001f26:	d10b      	bne.n	8001f40 <_printf_i+0x14c>
 8001f28:	6823      	ldr	r3, [r4, #0]
 8001f2a:	07df      	lsls	r7, r3, #31
 8001f2c:	d508      	bpl.n	8001f40 <_printf_i+0x14c>
 8001f2e:	6923      	ldr	r3, [r4, #16]
 8001f30:	6861      	ldr	r1, [r4, #4]
 8001f32:	4299      	cmp	r1, r3
 8001f34:	bfde      	ittt	le
 8001f36:	2330      	movle	r3, #48	; 0x30
 8001f38:	f806 3c01 	strble.w	r3, [r6, #-1]
 8001f3c:	f106 36ff 	addle.w	r6, r6, #4294967295	; 0xffffffff
 8001f40:	1b92      	subs	r2, r2, r6
 8001f42:	6122      	str	r2, [r4, #16]
 8001f44:	f8cd a000 	str.w	sl, [sp]
 8001f48:	464b      	mov	r3, r9
 8001f4a:	aa03      	add	r2, sp, #12
 8001f4c:	4621      	mov	r1, r4
 8001f4e:	4640      	mov	r0, r8
 8001f50:	f7ff fee2 	bl	8001d18 <_printf_common>
 8001f54:	3001      	adds	r0, #1
 8001f56:	d14c      	bne.n	8001ff2 <_printf_i+0x1fe>
 8001f58:	f04f 30ff 	mov.w	r0, #4294967295	; 0xffffffff
 8001f5c:	b004      	add	sp, #16
 8001f5e:	e8bd 87f0 	ldmia.w	sp!, {r4, r5, r6, r7, r8, r9, sl, pc}
 8001f62:	4835      	ldr	r0, [pc, #212]	; (8002038 <_printf_i+0x244>)
 8001f64:	f884 7045 	strb.w	r7, [r4, #69]	; 0x45
 8001f68:	6823      	ldr	r3, [r4, #0]
 8001f6a:	680e      	ldr	r6, [r1, #0]
 8001f6c:	061f      	lsls	r7, r3, #24
 8001f6e:	f856 5b04 	ldr.w	r5, [r6], #4
 8001f72:	600e      	str	r6, [r1, #0]
 8001f74:	d514      	bpl.n	8001fa0 <_printf_i+0x1ac>
 8001f76:	07d9      	lsls	r1, r3, #31
 8001f78:	bf44      	itt	mi
 8001f7a:	f043 0320 	orrmi.w	r3, r3, #32
 8001f7e:	6023      	strmi	r3, [r4, #0]
 8001f80:	b91d      	cbnz	r5, 8001f8a <_printf_i+0x196>
 8001f82:	6823      	ldr	r3, [r4, #0]
 8001f84:	f023 0320 	bic.w	r3, r3, #32
 8001f88:	6023      	str	r3, [r4, #0]
 8001f8a:	2310      	movs	r3, #16
 8001f8c:	e7b0      	b.n	8001ef0 <_printf_i+0xfc>
 8001f8e:	6823      	ldr	r3, [r4, #0]
 8001f90:	f043 0320 	orr.w	r3, r3, #32
 8001f94:	6023      	str	r3, [r4, #0]
 8001f96:	2378      	movs	r3, #120	; 0x78
 8001f98:	4828      	ldr	r0, [pc, #160]	; (800203c <_printf_i+0x248>)
 8001f9a:	f884 3045 	strb.w	r3, [r4, #69]	; 0x45
 8001f9e:	e7e3      	b.n	8001f68 <_printf_i+0x174>
 8001fa0:	065e      	lsls	r6, r3, #25
 8001fa2:	bf48      	it	mi
 8001fa4:	b2ad      	uxthmi	r5, r5
 8001fa6:	e7e6      	b.n	8001f76 <_printf_i+0x182>
 8001fa8:	4616      	mov	r6, r2
 8001faa:	e7bb      	b.n	8001f24 <_printf_i+0x130>
 8001fac:	680b      	ldr	r3, [r1, #0]
 8001fae:	6826      	ldr	r6, [r4, #0]
 8001fb0:	6960      	ldr	r0, [r4, #20]
 8001fb2:	1d1d      	adds	r5, r3, #4
 8001fb4:	600d      	str	r5, [r1, #0]
 8001fb6:	0635      	lsls	r5, r6, #24
 8001fb8:	681b      	ldr	r3, [r3, #0]
 8001fba:	d501      	bpl.n	8001fc0 <_printf_i+0x1cc>
 8001fbc:	6018      	str	r0, [r3, #0]
 8001fbe:	e002      	b.n	8001fc6 <_printf_i+0x1d2>
 8001fc0:	0671      	lsls	r1, r6, #25
 8001fc2:	d5fb      	bpl.n	8001fbc <_printf_i+0x1c8>
 8001fc4:	8018      	strh	r0, [r3, #0]
 8001fc6:	2300      	movs	r3, #0
 8001fc8:	6123      	str	r3, [r4, #16]
 8001fca:	4616      	mov	r6, r2
 8001fcc:	e7ba      	b.n	8001f44 <_printf_i+0x150>
 8001fce:	680b      	ldr	r3, [r1, #0]
 8001fd0:	1d1a      	adds	r2, r3, #4
 8001fd2:	600a      	str	r2, [r1, #0]
 8001fd4:	681e      	ldr	r6, [r3, #0]
 8001fd6:	6862      	ldr	r2, [r4, #4]
 8001fd8:	2100      	movs	r1, #0
 8001fda:	4630      	mov	r0, r6
 8001fdc:	f7fe f8f8 	bl	80001d0 <memchr>
 8001fe0:	b108      	cbz	r0, 8001fe6 <_printf_i+0x1f2>
 8001fe2:	1b80      	subs	r0, r0, r6
 8001fe4:	6060      	str	r0, [r4, #4]
 8001fe6:	6863      	ldr	r3, [r4, #4]
 8001fe8:	6123      	str	r3, [r4, #16]
 8001fea:	2300      	movs	r3, #0
 8001fec:	f884 3043 	strb.w	r3, [r4, #67]	; 0x43
 8001ff0:	e7a8      	b.n	8001f44 <_printf_i+0x150>
 8001ff2:	6923      	ldr	r3, [r4, #16]
 8001ff4:	4632      	mov	r2, r6
 8001ff6:	4649      	mov	r1, r9
 8001ff8:	4640      	mov	r0, r8
 8001ffa:	47d0      	blx	sl
 8001ffc:	3001      	adds	r0, #1
 8001ffe:	d0ab      	beq.n	8001f58 <_printf_i+0x164>
 8002000:	6823      	ldr	r3, [r4, #0]
 8002002:	079b      	lsls	r3, r3, #30
 8002004:	d413      	bmi.n	800202e <_printf_i+0x23a>
 8002006:	68e0      	ldr	r0, [r4, #12]
 8002008:	9b03      	ldr	r3, [sp, #12]
 800200a:	4298      	cmp	r0, r3
 800200c:	bfb8      	it	lt
 800200e:	4618      	movlt	r0, r3
 8002010:	e7a4      	b.n	8001f5c <_printf_i+0x168>
 8002012:	2301      	movs	r3, #1
 8002014:	4632      	mov	r2, r6
 8002016:	4649      	mov	r1, r9
 8002018:	4640      	mov	r0, r8
 800201a:	47d0      	blx	sl
 800201c:	3001      	adds	r0, #1
 800201e:	d09b      	beq.n	8001f58 <_printf_i+0x164>
 8002020:	3501      	adds	r5, #1
 8002022:	68e3      	ldr	r3, [r4, #12]
 8002024:	9903      	ldr	r1, [sp, #12]
 8002026:	1a5b      	subs	r3, r3, r1
 8002028:	42ab      	cmp	r3, r5
 800202a:	dcf2      	bgt.n	8002012 <_printf_i+0x21e>
 800202c:	e7eb      	b.n	8002006 <_printf_i+0x212>
 800202e:	2500      	movs	r5, #0
 8002030:	f104 0619 	add.w	r6, r4, #25
 8002034:	e7f5      	b.n	8002022 <_printf_i+0x22e>
 8002036:	bf00      	nop
 8002038:	08002369 	.word	0x08002369
 800203c:	0800237a 	.word	0x0800237a

08002040 <_putc_r>:
 8002040:	b570      	push	{r4, r5, r6, lr}
 8002042:	460d      	mov	r5, r1
 8002044:	4614      	mov	r4, r2
 8002046:	4606      	mov	r6, r0
 8002048:	b118      	cbz	r0, 8002052 <_putc_r+0x12>
 800204a:	6983      	ldr	r3, [r0, #24]
 800204c:	b90b      	cbnz	r3, 8002052 <_putc_r+0x12>
 800204e:	f7ff fb55 	bl	80016fc <__sinit>
 8002052:	4b1c      	ldr	r3, [pc, #112]	; (80020c4 <_putc_r+0x84>)
 8002054:	429c      	cmp	r4, r3
 8002056:	d124      	bne.n	80020a2 <_putc_r+0x62>
 8002058:	6874      	ldr	r4, [r6, #4]
 800205a:	6e63      	ldr	r3, [r4, #100]	; 0x64
 800205c:	07d8      	lsls	r0, r3, #31
 800205e:	d405      	bmi.n	800206c <_putc_r+0x2c>
 8002060:	89a3      	ldrh	r3, [r4, #12]
 8002062:	0599      	lsls	r1, r3, #22
 8002064:	d402      	bmi.n	800206c <_putc_r+0x2c>
 8002066:	6da0      	ldr	r0, [r4, #88]	; 0x58
 8002068:	f7ff f867 	bl	800113a <__retarget_lock_acquire_recursive>
 800206c:	68a3      	ldr	r3, [r4, #8]
 800206e:	3b01      	subs	r3, #1
 8002070:	2b00      	cmp	r3, #0
 8002072:	60a3      	str	r3, [r4, #8]
 8002074:	da05      	bge.n	8002082 <_putc_r+0x42>
 8002076:	69a2      	ldr	r2, [r4, #24]
 8002078:	4293      	cmp	r3, r2
 800207a:	db1c      	blt.n	80020b6 <_putc_r+0x76>
 800207c:	b2eb      	uxtb	r3, r5
 800207e:	2b0a      	cmp	r3, #10
 8002080:	d019      	beq.n	80020b6 <_putc_r+0x76>
 8002082:	6823      	ldr	r3, [r4, #0]
 8002084:	1c5a      	adds	r2, r3, #1
 8002086:	6022      	str	r2, [r4, #0]
 8002088:	701d      	strb	r5, [r3, #0]
 800208a:	b2ed      	uxtb	r5, r5
 800208c:	6e63      	ldr	r3, [r4, #100]	; 0x64
 800208e:	07da      	lsls	r2, r3, #31
 8002090:	d405      	bmi.n	800209e <_putc_r+0x5e>
 8002092:	89a3      	ldrh	r3, [r4, #12]
 8002094:	059b      	lsls	r3, r3, #22
 8002096:	d402      	bmi.n	800209e <_putc_r+0x5e>
 8002098:	6da0      	ldr	r0, [r4, #88]	; 0x58
 800209a:	f7ff f84f 	bl	800113c <__retarget_lock_release_recursive>
 800209e:	4628      	mov	r0, r5
 80020a0:	bd70      	pop	{r4, r5, r6, pc}
 80020a2:	4b09      	ldr	r3, [pc, #36]	; (80020c8 <_putc_r+0x88>)
 80020a4:	429c      	cmp	r4, r3
 80020a6:	d101      	bne.n	80020ac <_putc_r+0x6c>
 80020a8:	68b4      	ldr	r4, [r6, #8]
 80020aa:	e7d6      	b.n	800205a <_putc_r+0x1a>
 80020ac:	4b07      	ldr	r3, [pc, #28]	; (80020cc <_putc_r+0x8c>)
 80020ae:	429c      	cmp	r4, r3
 80020b0:	bf08      	it	eq
 80020b2:	68f4      	ldreq	r4, [r6, #12]
 80020b4:	e7d1      	b.n	800205a <_putc_r+0x1a>
 80020b6:	4629      	mov	r1, r5
 80020b8:	4622      	mov	r2, r4
 80020ba:	4630      	mov	r0, r6
 80020bc:	f7ff f944 	bl	8001348 <__swbuf_r>
 80020c0:	4605      	mov	r5, r0
 80020c2:	e7e3      	b.n	800208c <_putc_r+0x4c>
 80020c4:	08002318 	.word	0x08002318
 80020c8:	08002338 	.word	0x08002338
 80020cc:	080022f8 	.word	0x080022f8

080020d0 <_sbrk_r>:
 80020d0:	b538      	push	{r3, r4, r5, lr}
 80020d2:	4d06      	ldr	r5, [pc, #24]	; (80020ec <_sbrk_r+0x1c>)
 80020d4:	2300      	movs	r3, #0
 80020d6:	4604      	mov	r4, r0
 80020d8:	4608      	mov	r0, r1
 80020da:	602b      	str	r3, [r5, #0]
 80020dc:	f7fe feaa 	bl	8000e34 <_sbrk>
 80020e0:	1c43      	adds	r3, r0, #1
 80020e2:	d102      	bne.n	80020ea <_sbrk_r+0x1a>
 80020e4:	682b      	ldr	r3, [r5, #0]
 80020e6:	b103      	cbz	r3, 80020ea <_sbrk_r+0x1a>
 80020e8:	6023      	str	r3, [r4, #0]
 80020ea:	bd38      	pop	{r3, r4, r5, pc}
 80020ec:	200001c8 	.word	0x200001c8

080020f0 <__sread>:
 80020f0:	b510      	push	{r4, lr}
 80020f2:	460c      	mov	r4, r1
 80020f4:	f9b1 100e 	ldrsh.w	r1, [r1, #14]
 80020f8:	f000 f88e 	bl	8002218 <_read_r>
 80020fc:	2800      	cmp	r0, #0
 80020fe:	bfab      	itete	ge
 8002100:	6d63      	ldrge	r3, [r4, #84]	; 0x54
 8002102:	89a3      	ldrhlt	r3, [r4, #12]
 8002104:	181b      	addge	r3, r3, r0
 8002106:	f423 5380 	biclt.w	r3, r3, #4096	; 0x1000
 800210a:	bfac      	ite	ge
 800210c:	6563      	strge	r3, [r4, #84]	; 0x54
 800210e:	81a3      	strhlt	r3, [r4, #12]
 8002110:	bd10      	pop	{r4, pc}

08002112 <__swrite>:
 8002112:	e92d 41f0 	stmdb	sp!, {r4, r5, r6, r7, r8, lr}
 8002116:	461f      	mov	r7, r3
 8002118:	898b      	ldrh	r3, [r1, #12]
 800211a:	05db      	lsls	r3, r3, #23
 800211c:	4605      	mov	r5, r0
 800211e:	460c      	mov	r4, r1
 8002120:	4616      	mov	r6, r2
 8002122:	d505      	bpl.n	8002130 <__swrite+0x1e>
 8002124:	f9b1 100e 	ldrsh.w	r1, [r1, #14]
 8002128:	2302      	movs	r3, #2
 800212a:	2200      	movs	r2, #0
 800212c:	f000 f856 	bl	80021dc <_lseek_r>
 8002130:	89a3      	ldrh	r3, [r4, #12]
 8002132:	f9b4 100e 	ldrsh.w	r1, [r4, #14]
 8002136:	f423 5380 	bic.w	r3, r3, #4096	; 0x1000
 800213a:	81a3      	strh	r3, [r4, #12]
 800213c:	4632      	mov	r2, r6
 800213e:	463b      	mov	r3, r7
 8002140:	4628      	mov	r0, r5
 8002142:	e8bd 41f0 	ldmia.w	sp!, {r4, r5, r6, r7, r8, lr}
 8002146:	f7fe bb99 	b.w	800087c <_write_r>

0800214a <__sseek>:
 800214a:	b510      	push	{r4, lr}
 800214c:	460c      	mov	r4, r1
 800214e:	f9b1 100e 	ldrsh.w	r1, [r1, #14]
 8002152:	f000 f843 	bl	80021dc <_lseek_r>
 8002156:	1c43      	adds	r3, r0, #1
 8002158:	89a3      	ldrh	r3, [r4, #12]
 800215a:	bf15      	itete	ne
 800215c:	6560      	strne	r0, [r4, #84]	; 0x54
 800215e:	f423 5380 	biceq.w	r3, r3, #4096	; 0x1000
 8002162:	f443 5380 	orrne.w	r3, r3, #4096	; 0x1000
 8002166:	81a3      	strheq	r3, [r4, #12]
 8002168:	bf18      	it	ne
 800216a:	81a3      	strhne	r3, [r4, #12]
 800216c:	bd10      	pop	{r4, pc}

0800216e <__sclose>:
 800216e:	f9b1 100e 	ldrsh.w	r1, [r1, #14]
 8002172:	f000 b801 	b.w	8002178 <_close_r>
	...

08002178 <_close_r>:
 8002178:	b538      	push	{r3, r4, r5, lr}
 800217a:	4d06      	ldr	r5, [pc, #24]	; (8002194 <_close_r+0x1c>)
 800217c:	2300      	movs	r3, #0
 800217e:	4604      	mov	r4, r0
 8002180:	4608      	mov	r0, r1
 8002182:	602b      	str	r3, [r5, #0]
 8002184:	f7fe fe21 	bl	8000dca <_close>
 8002188:	1c43      	adds	r3, r0, #1
 800218a:	d102      	bne.n	8002192 <_close_r+0x1a>
 800218c:	682b      	ldr	r3, [r5, #0]
 800218e:	b103      	cbz	r3, 8002192 <_close_r+0x1a>
 8002190:	6023      	str	r3, [r4, #0]
 8002192:	bd38      	pop	{r3, r4, r5, pc}
 8002194:	200001c8 	.word	0x200001c8

08002198 <_fstat_r>:
 8002198:	b538      	push	{r3, r4, r5, lr}
 800219a:	4d07      	ldr	r5, [pc, #28]	; (80021b8 <_fstat_r+0x20>)
 800219c:	2300      	movs	r3, #0
 800219e:	4604      	mov	r4, r0
 80021a0:	4608      	mov	r0, r1
 80021a2:	4611      	mov	r1, r2
 80021a4:	602b      	str	r3, [r5, #0]
 80021a6:	f7fe fe1c 	bl	8000de2 <_fstat>
 80021aa:	1c43      	adds	r3, r0, #1
 80021ac:	d102      	bne.n	80021b4 <_fstat_r+0x1c>
 80021ae:	682b      	ldr	r3, [r5, #0]
 80021b0:	b103      	cbz	r3, 80021b4 <_fstat_r+0x1c>
 80021b2:	6023      	str	r3, [r4, #0]
 80021b4:	bd38      	pop	{r3, r4, r5, pc}
 80021b6:	bf00      	nop
 80021b8:	200001c8 	.word	0x200001c8

080021bc <_isatty_r>:
 80021bc:	b538      	push	{r3, r4, r5, lr}
 80021be:	4d06      	ldr	r5, [pc, #24]	; (80021d8 <_isatty_r+0x1c>)
 80021c0:	2300      	movs	r3, #0
 80021c2:	4604      	mov	r4, r0
 80021c4:	4608      	mov	r0, r1
 80021c6:	602b      	str	r3, [r5, #0]
 80021c8:	f7fe fe1b 	bl	8000e02 <_isatty>
 80021cc:	1c43      	adds	r3, r0, #1
 80021ce:	d102      	bne.n	80021d6 <_isatty_r+0x1a>
 80021d0:	682b      	ldr	r3, [r5, #0]
 80021d2:	b103      	cbz	r3, 80021d6 <_isatty_r+0x1a>
 80021d4:	6023      	str	r3, [r4, #0]
 80021d6:	bd38      	pop	{r3, r4, r5, pc}
 80021d8:	200001c8 	.word	0x200001c8

080021dc <_lseek_r>:
 80021dc:	b538      	push	{r3, r4, r5, lr}
 80021de:	4d07      	ldr	r5, [pc, #28]	; (80021fc <_lseek_r+0x20>)
 80021e0:	4604      	mov	r4, r0
 80021e2:	4608      	mov	r0, r1
 80021e4:	4611      	mov	r1, r2
 80021e6:	2200      	movs	r2, #0
 80021e8:	602a      	str	r2, [r5, #0]
 80021ea:	461a      	mov	r2, r3
 80021ec:	f7fe fe14 	bl	8000e18 <_lseek>
 80021f0:	1c43      	adds	r3, r0, #1
 80021f2:	d102      	bne.n	80021fa <_lseek_r+0x1e>
 80021f4:	682b      	ldr	r3, [r5, #0]
 80021f6:	b103      	cbz	r3, 80021fa <_lseek_r+0x1e>
 80021f8:	6023      	str	r3, [r4, #0]
 80021fa:	bd38      	pop	{r3, r4, r5, pc}
 80021fc:	200001c8 	.word	0x200001c8

08002200 <__malloc_lock>:
 8002200:	4801      	ldr	r0, [pc, #4]	; (8002208 <__malloc_lock+0x8>)
 8002202:	f7fe bf9a 	b.w	800113a <__retarget_lock_acquire_recursive>
 8002206:	bf00      	nop
 8002208:	200001c0 	.word	0x200001c0

0800220c <__malloc_unlock>:
 800220c:	4801      	ldr	r0, [pc, #4]	; (8002214 <__malloc_unlock+0x8>)
 800220e:	f7fe bf95 	b.w	800113c <__retarget_lock_release_recursive>
 8002212:	bf00      	nop
 8002214:	200001c0 	.word	0x200001c0

08002218 <_read_r>:
 8002218:	b538      	push	{r3, r4, r5, lr}
 800221a:	4d07      	ldr	r5, [pc, #28]	; (8002238 <_read_r+0x20>)
 800221c:	4604      	mov	r4, r0
 800221e:	4608      	mov	r0, r1
 8002220:	4611      	mov	r1, r2
 8002222:	2200      	movs	r2, #0
 8002224:	602a      	str	r2, [r5, #0]
 8002226:	461a      	mov	r2, r3
 8002228:	f7fe fdb2 	bl	8000d90 <_read>
 800222c:	1c43      	adds	r3, r0, #1
 800222e:	d102      	bne.n	8002236 <_read_r+0x1e>
 8002230:	682b      	ldr	r3, [r5, #0]
 8002232:	b103      	cbz	r3, 8002236 <_read_r+0x1e>
 8002234:	6023      	str	r3, [r4, #0]
 8002236:	bd38      	pop	{r3, r4, r5, pc}
 8002238:	200001c8 	.word	0x200001c8

0800223c <_init>:
 800223c:	b5f8      	push	{r3, r4, r5, r6, r7, lr}
 800223e:	bf00      	nop
 8002240:	bcf8      	pop	{r3, r4, r5, r6, r7}
 8002242:	bc08      	pop	{r3}
 8002244:	469e      	mov	lr, r3
 8002246:	4770      	bx	lr

08002248 <_fini>:
 8002248:	b5f8      	push	{r3, r4, r5, r6, r7, lr}
 800224a:	bf00      	nop
 800224c:	bcf8      	pop	{r3, r4, r5, r6, r7}
 800224e:	bc08      	pop	{r3}
 8002250:	469e      	mov	lr, r3
 8002252:	4770      	bx	lr
